

Microchip MPLAB XC8 Assembler V2.32 build 20210201212658 
                                                                                               Tue Mar 30 21:28:52 2021

Microchip MPLAB XC8 C Compiler v2.32 (Free license) build 20210201212658 Og1 
     1                           	processor	16F877A
     2                           	pagewidth 120
     3                           	opt	flic
     4                           	psect	strings,global,class=STRING,delta=2,noexec
     5                           	psect	nvBANK1,global,class=BANK1,space=1,delta=1,noexec
     6                           	psect	cinit,global,class=CODE,merge=1,delta=2
     7                           	psect	bssBANK1,global,class=BANK1,space=1,delta=1,noexec
     8                           	psect	cstackBANK1,global,class=BANK1,space=1,delta=1,noexec
     9                           	psect	cstackCOMMON,global,class=COMMON,space=1,delta=1,noexec
    10                           	psect	cstackBANK0,global,class=BANK0,space=1,delta=1,noexec
    11                           	psect	maintext,global,class=CODE,split=1,delta=2
    12                           	psect	text1,local,class=CODE,merge=1,delta=2
    13                           	psect	text2,local,class=CODE,merge=1,delta=2
    14                           	psect	text3,local,class=CODE,merge=1,delta=2
    15                           	psect	text4,local,class=CODE,merge=1,delta=2,group=1
    16                           	psect	text5,local,class=CODE,merge=1,delta=2,group=1
    17                           	psect	text6,local,class=CODE,merge=1,delta=2,group=1
    18                           	psect	text7,local,class=CODE,merge=1,delta=2,group=1
    19                           	psect	text8,local,class=CODE,merge=1,delta=2
    20                           	psect	text9,local,class=CODE,merge=1,delta=2
    21                           	psect	text10,local,class=CODE,merge=1,delta=2
    22                           	psect	text11,local,class=CODE,merge=1,delta=2
    23                           	psect	text12,local,class=CODE,merge=1,delta=2,group=1
    24                           	psect	text13,local,class=CODE,merge=1,delta=2,group=1
    25                           	psect	text14,local,class=CODE,merge=1,delta=2,group=1
    26                           	psect	text15,local,class=CODE,merge=1,delta=2,group=1
    27                           	psect	text16,local,class=CODE,merge=1,delta=2,group=1
    28                           	psect	text17,local,class=CODE,merge=1,delta=2
    29                           	psect	text18,local,class=CODE,merge=1,delta=2,group=1
    30                           	psect	text19,local,class=CODE,merge=1,delta=2
    31                           	psect	text20,local,class=CODE,merge=1,delta=2
    32                           	psect	config,global,abs,ovrld,class=CONFIG,space=4,delta=2,noexec
    33                           	dabs	1,0x7E,2
    34  0000                     
    35                           ; Version 2.20
    36                           ; Generated 12/02/2020 GMT
    37                           ; 
    38                           ; Copyright © 2020, Microchip Technology Inc. and its subsidiaries ("Microchip")
    39                           ; All rights reserved.
    40                           ; 
    41                           ; This software is developed by Microchip Technology Inc. and its subsidiaries ("Microch
      +                          ip").
    42                           ; 
    43                           ; Redistribution and use in source and binary forms, with or without modification, are
    44                           ; permitted provided that the following conditions are met:
    45                           ; 
    46                           ;     1. Redistributions of source code must retain the above copyright notice, this lis
      +                          t of
    47                           ;        conditions and the following disclaimer.
    48                           ; 
    49                           ;     2. Redistributions in binary form must reproduce the above copyright notice, this 
      +                          list
    50                           ;        of conditions and the following disclaimer in the documentation and/or other
    51                           ;        materials provided with the distribution.
    52                           ; 
    53                           ;     3. Microchip's name may not be used to endorse or promote products derived from th
      +                          is
    54                           ;        software without specific prior written permission.
    55                           ; 
    56                           ; THIS SOFTWARE IS PROVIDED BY MICROCHIP "AS IS" AND ANY EXPRESS OR IMPLIED WARRANTIES,
    57                           ; INCLUDING, BUT NOT LIMITED TO, THE IMPLIED WARRANTIES OF MERCHANTABILITY AND FITNESS F
      +                          OR
    58                           ; PURPOSE ARE DISCLAIMED.  IN NO EVENT SHALL MICROCHIP BE LIABLE FOR ANY DIRECT, INDIREC
      +                          T,
    59                           ; INCIDENTAL, SPECIAL, EXEMPLARY, OR CONSEQUENTIAL DAMAGES (INCLUDING BUT NOT LIMITED TO
    60                           ; PROCUREMENT OF SUBSTITUTE GOODS OR SERVICES; LOSS OF USE, DATA OR PROFITS; OR BUSINESS
    61                           ; INTERRUPTION) HOWSOEVER CAUSED AND ON ANY THEORY OF LIABILITY, WHETHER IN CONTRACT, ST
      +                          RICT
    62                           ; LIABILITY, OR TORT (INCLUDING NEGLIGENCE OR OTHERWISE) ARISING IN ANY WAY OUT OF THE U
      +                          SE OF
    63                           ; THIS SOFTWARE, EVEN IF ADVISED OF THE POSSIBILITY OF SUCH DAMAGE.
    64                           ; 
    65                           ; 
    66                           ; Code-generator required, PIC16F877A Definitions
    67                           ; 
    68                           ; SFR Addresses
    69  0000                     	;# 
    70  0001                     	;# 
    71  0002                     	;# 
    72  0003                     	;# 
    73  0004                     	;# 
    74  0005                     	;# 
    75  0006                     	;# 
    76  0007                     	;# 
    77  0008                     	;# 
    78  0009                     	;# 
    79  000A                     	;# 
    80  000B                     	;# 
    81  000C                     	;# 
    82  000D                     	;# 
    83  000E                     	;# 
    84  000E                     	;# 
    85  000F                     	;# 
    86  0010                     	;# 
    87  0011                     	;# 
    88  0012                     	;# 
    89  0013                     	;# 
    90  0014                     	;# 
    91  0015                     	;# 
    92  0015                     	;# 
    93  0016                     	;# 
    94  0017                     	;# 
    95  0018                     	;# 
    96  0019                     	;# 
    97  001A                     	;# 
    98  001B                     	;# 
    99  001B                     	;# 
   100  001C                     	;# 
   101  001D                     	;# 
   102  001E                     	;# 
   103  001F                     	;# 
   104  0081                     	;# 
   105  0085                     	;# 
   106  0086                     	;# 
   107  0087                     	;# 
   108  0088                     	;# 
   109  0089                     	;# 
   110  008C                     	;# 
   111  008D                     	;# 
   112  008E                     	;# 
   113  0091                     	;# 
   114  0092                     	;# 
   115  0093                     	;# 
   116  0094                     	;# 
   117  0098                     	;# 
   118  0099                     	;# 
   119  009C                     	;# 
   120  009D                     	;# 
   121  009E                     	;# 
   122  009F                     	;# 
   123  010C                     	;# 
   124  010D                     	;# 
   125  010E                     	;# 
   126  010F                     	;# 
   127  018C                     	;# 
   128  018D                     	;# 
   129  0000                     	;# 
   130  0001                     	;# 
   131  0002                     	;# 
   132  0003                     	;# 
   133  0004                     	;# 
   134  0005                     	;# 
   135  0006                     	;# 
   136  0007                     	;# 
   137  0008                     	;# 
   138  0009                     	;# 
   139  000A                     	;# 
   140  000B                     	;# 
   141  000C                     	;# 
   142  000D                     	;# 
   143  000E                     	;# 
   144  000E                     	;# 
   145  000F                     	;# 
   146  0010                     	;# 
   147  0011                     	;# 
   148  0012                     	;# 
   149  0013                     	;# 
   150  0014                     	;# 
   151  0015                     	;# 
   152  0015                     	;# 
   153  0016                     	;# 
   154  0017                     	;# 
   155  0018                     	;# 
   156  0019                     	;# 
   157  001A                     	;# 
   158  001B                     	;# 
   159  001B                     	;# 
   160  001C                     	;# 
   161  001D                     	;# 
   162  001E                     	;# 
   163  001F                     	;# 
   164  0081                     	;# 
   165  0085                     	;# 
   166  0086                     	;# 
   167  0087                     	;# 
   168  0088                     	;# 
   169  0089                     	;# 
   170  008C                     	;# 
   171  008D                     	;# 
   172  008E                     	;# 
   173  0091                     	;# 
   174  0092                     	;# 
   175  0093                     	;# 
   176  0094                     	;# 
   177  0098                     	;# 
   178  0099                     	;# 
   179  009C                     	;# 
   180  009D                     	;# 
   181  009E                     	;# 
   182  009F                     	;# 
   183  010C                     	;# 
   184  010D                     	;# 
   185  010E                     	;# 
   186  010F                     	;# 
   187  018C                     	;# 
   188  018D                     	;# 
   189  0000                     	;# 
   190  0001                     	;# 
   191  0002                     	;# 
   192  0003                     	;# 
   193  0004                     	;# 
   194  0005                     	;# 
   195  0006                     	;# 
   196  0007                     	;# 
   197  0008                     	;# 
   198  0009                     	;# 
   199  000A                     	;# 
   200  000B                     	;# 
   201  000C                     	;# 
   202  000D                     	;# 
   203  000E                     	;# 
   204  000E                     	;# 
   205  000F                     	;# 
   206  0010                     	;# 
   207  0011                     	;# 
   208  0012                     	;# 
   209  0013                     	;# 
   210  0014                     	;# 
   211  0015                     	;# 
   212  0015                     	;# 
   213  0016                     	;# 
   214  0017                     	;# 
   215  0018                     	;# 
   216  0019                     	;# 
   217  001A                     	;# 
   218  001B                     	;# 
   219  001B                     	;# 
   220  001C                     	;# 
   221  001D                     	;# 
   222  001E                     	;# 
   223  001F                     	;# 
   224  0081                     	;# 
   225  0085                     	;# 
   226  0086                     	;# 
   227  0087                     	;# 
   228  0088                     	;# 
   229  0089                     	;# 
   230  008C                     	;# 
   231  008D                     	;# 
   232  008E                     	;# 
   233  0091                     	;# 
   234  0092                     	;# 
   235  0093                     	;# 
   236  0094                     	;# 
   237  0098                     	;# 
   238  0099                     	;# 
   239  009C                     	;# 
   240  009D                     	;# 
   241  009E                     	;# 
   242  009F                     	;# 
   243  010C                     	;# 
   244  010D                     	;# 
   245  010E                     	;# 
   246  010F                     	;# 
   247  018C                     	;# 
   248  018D                     	;# 
   249  0000                     	;# 
   250  0001                     	;# 
   251  0002                     	;# 
   252  0003                     	;# 
   253  0004                     	;# 
   254  0005                     	;# 
   255  0006                     	;# 
   256  0007                     	;# 
   257  0008                     	;# 
   258  0009                     	;# 
   259  000A                     	;# 
   260  000B                     	;# 
   261  000C                     	;# 
   262  000D                     	;# 
   263  000E                     	;# 
   264  000E                     	;# 
   265  000F                     	;# 
   266  0010                     	;# 
   267  0011                     	;# 
   268  0012                     	;# 
   269  0013                     	;# 
   270  0014                     	;# 
   271  0015                     	;# 
   272  0015                     	;# 
   273  0016                     	;# 
   274  0017                     	;# 
   275  0018                     	;# 
   276  0019                     	;# 
   277  001A                     	;# 
   278  001B                     	;# 
   279  001B                     	;# 
   280  001C                     	;# 
   281  001D                     	;# 
   282  001E                     	;# 
   283  001F                     	;# 
   284  0081                     	;# 
   285  0085                     	;# 
   286  0086                     	;# 
   287  0087                     	;# 
   288  0088                     	;# 
   289  0089                     	;# 
   290  008C                     	;# 
   291  008D                     	;# 
   292  008E                     	;# 
   293  0091                     	;# 
   294  0092                     	;# 
   295  0093                     	;# 
   296  0094                     	;# 
   297  0098                     	;# 
   298  0099                     	;# 
   299  009C                     	;# 
   300  009D                     	;# 
   301  009E                     	;# 
   302  009F                     	;# 
   303  010C                     	;# 
   304  010D                     	;# 
   305  010E                     	;# 
   306  010F                     	;# 
   307  018C                     	;# 
   308  018D                     	;# 
   309                           
   310                           	psect	strings
   311  0800                     __pstrings:
   312  0800                     stringtab:
   313  0800                     __stringtab:
   314  0800                     stringcode:	
   315                           ;	String table - string pointers are 1 byte each
   316                           
   317  0800                     stringdir:
   318  0800  3008               	movlw	high stringdir
   319  0801  008A               	movwf	10
   320  0802  0804               	movf	4,w
   321  0803  0A84               	incf	4,f
   322  0804  0782               	addwf	2,f
   323  0805                     __stringbase:
   324  0805  3400               	retlw	0
   325  0806                     __end_of__stringtab:
   326  0806                     _digito:
   327  0806  343F               	retlw	63
   328  0807  3406               	retlw	6
   329  0808  345B               	retlw	91
   330  0809  344F               	retlw	79
   331  080A  3466               	retlw	102
   332  080B  346D               	retlw	109
   333  080C  347D               	retlw	125
   334  080D  3407               	retlw	7
   335  080E  347F               	retlw	127
   336  080F  346F               	retlw	111
   337  0810                     __end_of_digito:
   338                           
   339                           	psect	nvBANK1
   340  00BD                     __pnvBANK1:
   341  00BD                     main@temperatura:
   342  00BD                     	ds	2
   343  001E                     _ADRESH	set	30
   344  001F                     _ADCON0	set	31
   345  001B                     _CCPR2L	set	27
   346  0015                     _CCPR1L	set	21
   347  0008                     _PORTD	set	8
   348  00FA                     _GO_nDONE	set	250
   349  0091                     _T2CKPS1	set	145
   350  0090                     _T2CKPS0	set	144
   351  00EA                     _CCP2M2	set	234
   352  00EB                     _CCP2M3	set	235
   353  0092                     _TMR2ON	set	146
   354  00BA                     _CCP1M2	set	186
   355  00BB                     _CCP1M3	set	187
   356  00EC                     _CCP2Y	set	236
   357  00ED                     _CCP2X	set	237
   358  00BC                     _CCP1Y	set	188
   359  00BD                     _CCP1X	set	189
   360  0033                     _RB3	set	51
   361  0032                     _RB2	set	50
   362  0031                     _RB1	set	49
   363  0030                     _RB0	set	48
   364  0034                     _RB4	set	52
   365  0035                     _RB5	set	53
   366  0036                     _RB6	set	54
   367  0037                     _RB7	set	55
   368  009E                     _ADRESL	set	158
   369  009F                     _ADCON1	set	159
   370  0092                     _PR2	set	146
   371  0089                     _TRISE	set	137
   372  0088                     _TRISD	set	136
   373  0087                     _TRISC	set	135
   374  0086                     _TRISB	set	134
   375  0085                     _TRISA	set	133
   376  0439                     _TRISC1	set	1081
   377  043A                     _TRISC2	set	1082
   378                           
   379                           	psect	cinit
   380  07F2                     start_initialization:	
   381                           ; #config settings
   382                           
   383  07F2                     __initialization:
   384                           
   385                           ; Clear objects allocated to BANK1
   386  07F2  1683               	bsf	3,5	;RP0=1, select bank1
   387  07F3  1303               	bcf	3,6	;RP1=0, select bank1
   388  07F4  01B5               	clrf	__pbssBANK1& (0+127)
   389  07F5  01B6               	clrf	(__pbssBANK1+1)& (0+127)
   390  07F6  01B7               	clrf	(__pbssBANK1+2)& (0+127)
   391  07F7  01B8               	clrf	(__pbssBANK1+3)& (0+127)
   392  07F8  01B9               	clrf	(__pbssBANK1+4)& (0+127)
   393  07F9  01BA               	clrf	(__pbssBANK1+5)& (0+127)
   394  07FA  01BB               	clrf	(__pbssBANK1+6)& (0+127)
   395  07FB  01BC               	clrf	(__pbssBANK1+7)& (0+127)
   396  07FC                     end_of_initialization:	
   397                           ;End of C runtime variable initialization code
   398                           
   399  07FC                     __end_of__initialization:
   400  07FC  0183               	clrf	3
   401  07FD  120A  118A  297F   	ljmp	_main	;jump to C main() function
   402                           
   403                           	psect	bssBANK1
   404  00B5                     __pbssBANK1:
   405  00B5                     controlarSetPoint@S4Atual:
   406  00B5                     	ds	1
   407  00B6                     controlarSetPoint@S4Anterior:
   408  00B6                     	ds	1
   409  00B7                     controlarSetPoint@S3Atual:
   410  00B7                     	ds	1
   411  00B8                     controlarSetPoint@S3Anterior:
   412  00B8                     	ds	1
   413  00B9                     controlarSetPoint@S2Atual:
   414  00B9                     	ds	1
   415  00BA                     controlarSetPoint@S2Anterior:
   416  00BA                     	ds	1
   417  00BB                     controlarSetPoint@S1Atual:
   418  00BB                     	ds	1
   419  00BC                     controlarSetPoint@S1Anterior:
   420  00BC                     	ds	1
   421                           
   422                           	psect	cstackBANK1
   423  00A0                     __pcstackBANK1:
   424  00A0                     ??___fltol:
   425                           
   426                           ; 1 bytes @ 0x0
   427  00A0                     	ds	5
   428  00A5                     ?_PWM1_Duty:
   429  00A5                     ?_PWM2_Duty:	
   430                           ; 1 bytes @ 0x5
   431                           
   432  00A5                     PWM1_Duty@duty:	
   433                           ; 1 bytes @ 0x5
   434                           
   435  00A5                     PWM2_Duty@duty:	
   436                           ; 2 bytes @ 0x5
   437                           
   438                           
   439                           ; 2 bytes @ 0x5
   440  00A5                     	ds	2
   441  00A7                     PWM1_Duty@freq:
   442  00A7                     PWM2_Duty@freq:	
   443                           ; 2 bytes @ 0x7
   444                           
   445                           
   446                           ; 2 bytes @ 0x7
   447  00A7                     	ds	2
   448  00A9                     ??_main:
   449                           
   450                           ; 1 bytes @ 0x9
   451  00A9                     	ds	4
   452  00AD                     main@valorSetPoint:
   453                           
   454                           ; 4 bytes @ 0xD
   455  00AD                     	ds	4
   456  00B1                     main@cooler:
   457                           
   458                           ; 2 bytes @ 0x11
   459  00B1                     	ds	2
   460  00B3                     main@setPoint:
   461                           
   462                           ; 2 bytes @ 0x13
   463  00B3                     	ds	2
   464                           
   465                           	psect	cstackCOMMON
   466  0070                     __pcstackCOMMON:
   467  0070                     ?_ADC_Init:
   468  0070                     ??_ADC_Init:	
   469                           ; 1 bytes @ 0x0
   470                           
   471  0070                     ?_PWM1_Start:	
   472                           ; 1 bytes @ 0x0
   473                           
   474  0070                     ??_PWM1_Start:	
   475                           ; 1 bytes @ 0x0
   476                           
   477  0070                     ?_PWM2_Start:	
   478                           ; 1 bytes @ 0x0
   479                           
   480  0070                     ??_PWM2_Start:	
   481                           ; 1 bytes @ 0x0
   482                           
   483  0070                     ?_main:	
   484                           ; 1 bytes @ 0x0
   485                           
   486  0070                     ?_ADC_Read:	
   487                           ; 1 bytes @ 0x0
   488                           
   489  0070                     ?__Umul8_16:	
   490                           ; 2 bytes @ 0x0
   491                           
   492  0070                     ?_controlarSetPoint:	
   493                           ; 2 bytes @ 0x0
   494                           
   495  0070                     ?_controleMaximoMinimo:	
   496                           ; 2 bytes @ 0x0
   497                           
   498  0070                     ?___lwmod:	
   499                           ; 2 bytes @ 0x0
   500                           
   501  0070                     ?___aldiv:	
   502                           ; 2 bytes @ 0x0
   503                           
   504  0070                     __Umul8_16@multiplicand:	
   505                           ; 4 bytes @ 0x0
   506                           
   507  0070                     controlarSetPoint@setPoint:	
   508                           ; 1 bytes @ 0x0
   509                           
   510  0070                     controleMaximoMinimo@valor:	
   511                           ; 2 bytes @ 0x0
   512                           
   513  0070                     ___lwmod@divisor:	
   514                           ; 2 bytes @ 0x0
   515                           
   516  0070                     ___aldiv@divisor:	
   517                           ; 2 bytes @ 0x0
   518                           
   519                           
   520                           ; 4 bytes @ 0x0
   521  0070                     	ds	2
   522  0072                     ??_ADC_Read:
   523  0072                     ??__Umul8_16:	
   524                           ; 1 bytes @ 0x2
   525                           
   526  0072                     ??_controlarSetPoint:	
   527                           ; 1 bytes @ 0x2
   528                           
   529  0072                     ??_controleMaximoMinimo:	
   530                           ; 1 bytes @ 0x2
   531                           
   532  0072                     ___lwmod@dividend:	
   533                           ; 1 bytes @ 0x2
   534                           
   535                           
   536                           ; 2 bytes @ 0x2
   537  0072                     	ds	2
   538  0074                     ??___lwmod:
   539  0074                     ADC_Read@channel:	
   540                           ; 1 bytes @ 0x4
   541                           
   542  0074                     __Umul8_16@product:	
   543                           ; 1 bytes @ 0x4
   544                           
   545  0074                     ___aldiv@dividend:	
   546                           ; 2 bytes @ 0x4
   547                           
   548                           
   549                           ; 4 bytes @ 0x4
   550  0074                     	ds	1
   551  0075                     ?___wmul:
   552  0075                     ___lwmod@counter:	
   553                           ; 2 bytes @ 0x5
   554                           
   555  0075                     ___wmul@multiplier:	
   556                           ; 1 bytes @ 0x5
   557                           
   558                           
   559                           ; 2 bytes @ 0x5
   560  0075                     	ds	1
   561  0076                     ?___lwdiv:
   562  0076                     ___lwdiv@divisor:	
   563                           ; 2 bytes @ 0x6
   564                           
   565  0076                     __Umul8_16@word_mpld:	
   566                           ; 2 bytes @ 0x6
   567                           
   568                           
   569                           ; 2 bytes @ 0x6
   570  0076                     	ds	1
   571  0077                     ___wmul@multiplicand:
   572                           
   573                           ; 2 bytes @ 0x7
   574  0077                     	ds	1
   575  0078                     ??___aldiv:
   576  0078                     __Umul8_16@multiplier:	
   577                           ; 1 bytes @ 0x8
   578                           
   579  0078                     ___lwdiv@dividend:	
   580                           ; 1 bytes @ 0x8
   581                           
   582                           
   583                           ; 2 bytes @ 0x8
   584  0078                     	ds	1
   585  0079                     ??_PWM_Init:
   586  0079                     ??___wmul:	
   587                           ; 1 bytes @ 0x9
   588                           
   589  0079                     ___wmul@product:	
   590                           ; 1 bytes @ 0x9
   591                           
   592                           
   593                           ; 2 bytes @ 0x9
   594  0079                     	ds	1
   595  007A                     ??___lwdiv:
   596                           
   597                           ; 1 bytes @ 0xA
   598  007A                     	ds	1
   599  007B                     ___lwdiv@quotient:
   600                           
   601                           ; 2 bytes @ 0xB
   602  007B                     	ds	2
   603  007D                     ___lwdiv@counter:
   604                           
   605                           ; 1 bytes @ 0xD
   606  007D                     	ds	1
   607                           
   608                           	psect	cstackBANK0
   609  0020                     __pcstackBANK0:
   610  0020                     ?_atualizaDisplay:
   611  0020                     ___aldiv@counter:	
   612                           ; 1 bytes @ 0x0
   613                           
   614  0020                     atualizaDisplay@tempSet:	
   615                           ; 1 bytes @ 0x0
   616                           
   617                           
   618                           ; 2 bytes @ 0x0
   619  0020                     	ds	1
   620  0021                     ___aldiv@sign:
   621                           
   622                           ; 1 bytes @ 0x1
   623  0021                     	ds	1
   624  0022                     ??_atualizaDisplay:
   625  0022                     ___aldiv@quotient:	
   626                           ; 1 bytes @ 0x2
   627                           
   628                           
   629                           ; 4 bytes @ 0x2
   630  0022                     	ds	2
   631  0024                     atualizaDisplay@milhar:
   632                           
   633                           ; 2 bytes @ 0x4
   634  0024                     	ds	2
   635  0026                     ?_PWM_Init:
   636  0026                     ?___xxtofl:	
   637                           ; 1 bytes @ 0x6
   638                           
   639  0026                     atualizaDisplay@centena:	
   640                           ; 4 bytes @ 0x6
   641                           
   642  0026                     PWM_Init@freq:	
   643                           ; 2 bytes @ 0x6
   644                           
   645  0026                     ___xxtofl@val:	
   646                           ; 4 bytes @ 0x6
   647                           
   648                           
   649                           ; 4 bytes @ 0x6
   650  0026                     	ds	2
   651  0028                     atualizaDisplay@dezena:
   652                           
   653                           ; 2 bytes @ 0x8
   654  0028                     	ds	2
   655  002A                     ??___xxtofl:
   656  002A                     atualizaDisplay@unidade:	
   657                           ; 1 bytes @ 0xA
   658                           
   659                           
   660                           ; 2 bytes @ 0xA
   661  002A                     	ds	2
   662  002C                     _atualizaDisplay$756:
   663                           
   664                           ; 2 bytes @ 0xC
   665  002C                     	ds	2
   666  002E                     ___xxtofl@sign:
   667  002E                     _atualizaDisplay$755:	
   668                           ; 1 bytes @ 0xE
   669                           
   670                           
   671                           ; 2 bytes @ 0xE
   672  002E                     	ds	1
   673  002F                     ___xxtofl@exp:
   674                           
   675                           ; 1 bytes @ 0xF
   676  002F                     	ds	1
   677  0030                     ___xxtofl@arg:
   678                           
   679                           ; 4 bytes @ 0x10
   680  0030                     	ds	4
   681  0034                     ?___flge:
   682  0034                     ?___fldiv:	
   683                           ; 1 bit 
   684                           
   685  0034                     ___flge@ff1:	
   686                           ; 4 bytes @ 0x14
   687                           
   688  0034                     ___fldiv@a:	
   689                           ; 4 bytes @ 0x14
   690                           
   691                           
   692                           ; 4 bytes @ 0x14
   693  0034                     	ds	4
   694  0038                     ___flge@ff2:
   695  0038                     ___fldiv@b:	
   696                           ; 4 bytes @ 0x18
   697                           
   698                           
   699                           ; 4 bytes @ 0x18
   700  0038                     	ds	4
   701  003C                     ??___flge:
   702  003C                     ??___fldiv:	
   703                           ; 1 bytes @ 0x1C
   704                           
   705                           
   706                           ; 1 bytes @ 0x1C
   707  003C                     	ds	5
   708  0041                     ___fldiv@rem:
   709                           
   710                           ; 4 bytes @ 0x21
   711  0041                     	ds	4
   712  0045                     ___fldiv@sign:
   713                           
   714                           ; 1 bytes @ 0x25
   715  0045                     	ds	1
   716  0046                     ___fldiv@new_exp:
   717                           
   718                           ; 2 bytes @ 0x26
   719  0046                     	ds	2
   720  0048                     ___fldiv@grs:
   721                           
   722                           ; 4 bytes @ 0x28
   723  0048                     	ds	4
   724  004C                     ___fldiv@bexp:
   725                           
   726                           ; 1 bytes @ 0x2C
   727  004C                     	ds	1
   728  004D                     ___fldiv@aexp:
   729                           
   730                           ; 1 bytes @ 0x2D
   731  004D                     	ds	1
   732  004E                     ?___flmul:
   733  004E                     ___flmul@b:	
   734                           ; 4 bytes @ 0x2E
   735                           
   736                           
   737                           ; 4 bytes @ 0x2E
   738  004E                     	ds	4
   739  0052                     ___flmul@a:
   740                           
   741                           ; 4 bytes @ 0x32
   742  0052                     	ds	4
   743  0056                     ??___flmul:
   744                           
   745                           ; 1 bytes @ 0x36
   746  0056                     	ds	5
   747  005B                     ___flmul@sign:
   748                           
   749                           ; 1 bytes @ 0x3B
   750  005B                     	ds	1
   751  005C                     ___flmul@grs:
   752                           
   753                           ; 4 bytes @ 0x3C
   754  005C                     	ds	4
   755  0060                     ___flmul@aexp:
   756                           
   757                           ; 1 bytes @ 0x40
   758  0060                     	ds	1
   759  0061                     ___flmul@bexp:
   760                           
   761                           ; 1 bytes @ 0x41
   762  0061                     	ds	1
   763  0062                     ___flmul@prod:
   764                           
   765                           ; 4 bytes @ 0x42
   766  0062                     	ds	4
   767  0066                     ___flmul@temp:
   768                           
   769                           ; 2 bytes @ 0x46
   770  0066                     	ds	2
   771  0068                     ?___fltol:
   772  0068                     ___fltol@f1:	
   773                           ; 4 bytes @ 0x48
   774                           
   775                           
   776                           ; 4 bytes @ 0x48
   777  0068                     	ds	4
   778  006C                     ___fltol@sign1:
   779                           
   780                           ; 1 bytes @ 0x4C
   781  006C                     	ds	1
   782  006D                     ___fltol@exp1:
   783                           
   784                           ; 1 bytes @ 0x4D
   785  006D                     	ds	1
   786  006E                     ??_PWM1_Duty:
   787  006E                     ??_PWM2_Duty:	
   788                           ; 1 bytes @ 0x4E
   789                           
   790                           
   791                           ; 1 bytes @ 0x4E
   792  006E                     	ds	2
   793                           
   794                           	psect	maintext
   795  017F                     __pmaintext:	
   796 ;;
   797 ;;Main: autosize = 0, tempsize = 4, incstack = 0, save=0
   798 ;;
   799 ;; *************** function _main *****************
   800 ;; Defined at:
   801 ;;		line 110 in file "main.c"
   802 ;; Parameters:    Size  Location     Type
   803 ;;		None
   804 ;; Auto vars:     Size  Location     Type
   805 ;;  valorSetPoin    4   13[BANK1 ] float 
   806 ;;  setPoint        2   19[BANK1 ] unsigned int 
   807 ;;  cooler          2   17[BANK1 ] int 
   808 ;; Return value:  Size  Location     Type
   809 ;;                  1    wreg      void 
   810 ;; Registers used:
   811 ;;		wreg, fsr0l, fsr0h, status,2, status,0, btemp+1, pclath, cstack
   812 ;; Tracked objects:
   813 ;;		On entry : B00/0
   814 ;;		On exit  : 0/0
   815 ;;		Unchanged: 0/0
   816 ;; Data sizes:     COMMON   BANK0   BANK1   BANK3   BANK2
   817 ;;      Params:         0       0       0       0       0
   818 ;;      Locals:         0       0       8       0       0
   819 ;;      Temps:          0       0       4       0       0
   820 ;;      Totals:         0       0      12       0       0
   821 ;;Total ram usage:       12 bytes
   822 ;; Hardware stack levels required when called: 3
   823 ;; This function calls:
   824 ;;		_ADC_Init
   825 ;;		_ADC_Read
   826 ;;		_PWM1_Duty
   827 ;;		_PWM1_Start
   828 ;;		_PWM2_Duty
   829 ;;		_PWM2_Start
   830 ;;		___flge
   831 ;;		___lwdiv
   832 ;;		___wmul
   833 ;;		___xxtofl
   834 ;;		_atualizaDisplay
   835 ;;		_controlarSetPoint
   836 ;;		_controleMaximoMinimo
   837 ;; This function is called by:
   838 ;;		Startup code after reset
   839 ;; This function uses a non-reentrant model
   840 ;;
   841                           
   842                           
   843                           ;psect for function _main
   844  017F                     _main:
   845  017F                     l2072:	
   846                           ;incstack = 0
   847                           ; Regs used in _main: [wreg-fsr0h+status,2+status,0+btemp+1+pclath+cstack]
   848                           
   849                           
   850                           ;main.c: 112:     TRISA = 0xFF;
   851  017F  30FF               	movlw	255
   852  0180  1683               	bsf	3,5	;RP0=1, select bank1
   853  0181  1303               	bcf	3,6	;RP1=0, select bank1
   854  0182  0085               	movwf	5	;volatile
   855                           
   856                           ;main.c: 113:     TRISB = 0x0F;
   857  0183  300F               	movlw	15
   858  0184  0086               	movwf	6	;volatile
   859  0185                     l2074:
   860                           
   861                           ;main.c: 114:     TRISC = 0x00;
   862  0185  0187               	clrf	7	;volatile
   863  0186                     l2076:
   864                           
   865                           ;main.c: 115:     TRISD = 0x00;
   866  0186  0188               	clrf	8	;volatile
   867  0187                     l2078:
   868                           
   869                           ;main.c: 116:     TRISE = 0x00;
   870  0187  0189               	clrf	9	;volatile
   871  0188                     l2080:
   872                           
   873                           ;main.c: 117:     static int temperatura;;main.c: 118:     unsigned int setPoint = 4400;
   874  0188  3030               	movlw	48
   875  0189  00B3               	movwf	main@setPoint^(0+128)
   876  018A  3011               	movlw	17
   877  018B  00B4               	movwf	(main@setPoint^(0+128)+1)
   878  018C                     l2082:
   879  018C                     l2084:
   880                           
   881                           ;main.c: 120:     int cooler = 10;
   882  018C  300A               	movlw	10
   883  018D  00B1               	movwf	main@cooler^(0+128)
   884  018E  3000               	movlw	0
   885  018F  00B2               	movwf	(main@cooler^(0+128)+1)
   886  0190                     l2086:
   887                           
   888                           ;main.c: 122:     ADC_Init();
   889  0190  120A  158A  226C  120A  118A  	fcall	_ADC_Init
   890  0195                     l2088:
   891                           
   892                           ;main.c: 123:     PWM1_Start();
   893  0195  120A  158A  2275  120A  118A  	fcall	_PWM1_Start
   894  019A                     l2090:
   895                           
   896                           ;main.c: 124:     PWM2_Start();
   897  019A  120A  118A  2005  120A  118A  	fcall	_PWM2_Start
   898  019F                     l2092:
   899                           
   900                           ;main.c: 127:         setPoint = controlarSetPoint(setPoint);
   901  019F  1683               	bsf	3,5	;RP0=1, select bank1
   902  01A0  1303               	bcf	3,6	;RP1=0, select bank1
   903  01A1  0834               	movf	(main@setPoint+1)^(0+128),w
   904  01A2  00F1               	movwf	controlarSetPoint@setPoint+1
   905  01A3  0833               	movf	main@setPoint^(0+128),w
   906  01A4  00F0               	movwf	controlarSetPoint@setPoint
   907  01A5  120A  118A  2010  120A  118A  	fcall	_controlarSetPoint
   908  01AA  0871               	movf	?_controlarSetPoint+1,w
   909  01AB  1683               	bsf	3,5	;RP0=1, select bank1
   910  01AC  1303               	bcf	3,6	;RP1=0, select bank1
   911  01AD  00B4               	movwf	(main@setPoint+1)^(0+128)
   912  01AE  0870               	movf	?_controlarSetPoint,w
   913  01AF  00B3               	movwf	main@setPoint^(0+128)
   914  01B0                     l2094:
   915                           
   916                           ;main.c: 128:         temperatura = (ADC_Read(0)*10/8 - 150);
   917  01B0  3000               	movlw	0
   918  01B1  120A  158A  22E2  120A  118A  	fcall	_ADC_Read
   919  01B6  0871               	movf	?_ADC_Read+1,w
   920  01B7  00F6               	movwf	___wmul@multiplier+1
   921  01B8  0870               	movf	?_ADC_Read,w
   922  01B9  00F5               	movwf	___wmul@multiplier
   923  01BA  300A               	movlw	10
   924  01BB  00F7               	movwf	___wmul@multiplicand
   925  01BC  3000               	movlw	0
   926  01BD  00F8               	movwf	___wmul@multiplicand+1
   927  01BE  120A  158A  2296  120A  118A  	fcall	___wmul
   928  01C3  0875               	movf	?___wmul,w
   929  01C4  1683               	bsf	3,5	;RP0=1, select bank1
   930  01C5  1303               	bcf	3,6	;RP1=0, select bank1
   931  01C6  00A9               	movwf	??_main^(0+128)
   932  01C7  0876               	movf	?___wmul+1,w
   933  01C8  00AA               	movwf	(??_main^(0+128)+1)
   934  01C9  1003               	clrc
   935  01CA  0CAA               	rrf	(??_main^(0+128)+1),f
   936  01CB  0CA9               	rrf	??_main^(0+128),f
   937  01CC  1003               	clrc
   938  01CD  0CAA               	rrf	(??_main^(0+128)+1),f
   939  01CE  0CA9               	rrf	??_main^(0+128),f
   940  01CF  1003               	clrc
   941  01D0  0CAA               	rrf	(??_main^(0+128)+1),f
   942  01D1  0CA9               	rrf	??_main^(0+128),f
   943  01D2  0829               	movf	??_main^(0+128),w
   944  01D3  3E6A               	addlw	106
   945  01D4  00BD               	movwf	main@temperatura^(0+128)
   946  01D5  082A               	movf	(??_main+1)^(0+128),w
   947  01D6  1803               	skipnc
   948  01D7  3E01               	addlw	1
   949  01D8  3EFF               	addlw	255
   950  01D9  00BE               	movwf	(main@temperatura+1)^(0+128)
   951  01DA                     l2096:
   952                           
   953                           ;main.c: 129:         valorSetPoint = (setPoint / 10);
   954  01DA  0834               	movf	(main@setPoint+1)^(0+128),w
   955  01DB  00F9               	movwf	___lwdiv@dividend+1
   956  01DC  0833               	movf	main@setPoint^(0+128),w
   957  01DD  00F8               	movwf	___lwdiv@dividend
   958  01DE  300A               	movlw	10
   959  01DF  00F6               	movwf	___lwdiv@divisor
   960  01E0  3000               	movlw	0
   961  01E1  00F7               	movwf	___lwdiv@divisor+1
   962  01E2  120A  158A  2387  120A  118A  	fcall	___lwdiv
   963  01E7  0876               	movf	?___lwdiv,w
   964  01E8  1683               	bsf	3,5	;RP0=1, select bank1
   965  01E9  1303               	bcf	3,6	;RP1=0, select bank1
   966  01EA  00A9               	movwf	??_main^(0+128)
   967  01EB  0877               	movf	?___lwdiv+1,w
   968  01EC  00AA               	movwf	(??_main^(0+128)+1)
   969  01ED  01AB               	clrf	(??_main^(0+128)+2)
   970  01EE  01AC               	clrf	(??_main^(0+128)+3)
   971  01EF  082C               	movf	(??_main+3)^(0+128),w
   972  01F0  1283               	bcf	3,5	;RP0=0, select bank0
   973  01F1  1303               	bcf	3,6	;RP1=0, select bank0
   974  01F2  00A9               	movwf	___xxtofl@val+3
   975  01F3  1683               	bsf	3,5	;RP0=1, select bank1
   976  01F4  1303               	bcf	3,6	;RP1=0, select bank1
   977  01F5  082B               	movf	(??_main+2)^(0+128),w
   978  01F6  1283               	bcf	3,5	;RP0=0, select bank0
   979  01F7  1303               	bcf	3,6	;RP1=0, select bank0
   980  01F8  00A8               	movwf	___xxtofl@val+2
   981  01F9  1683               	bsf	3,5	;RP0=1, select bank1
   982  01FA  1303               	bcf	3,6	;RP1=0, select bank1
   983  01FB  082A               	movf	(??_main+1)^(0+128),w
   984  01FC  1283               	bcf	3,5	;RP0=0, select bank0
   985  01FD  1303               	bcf	3,6	;RP1=0, select bank0
   986  01FE  00A7               	movwf	___xxtofl@val+1
   987  01FF  1683               	bsf	3,5	;RP0=1, select bank1
   988  0200  1303               	bcf	3,6	;RP1=0, select bank1
   989  0201  0829               	movf	??_main^(0+128),w
   990  0202  1283               	bcf	3,5	;RP0=0, select bank0
   991  0203  1303               	bcf	3,6	;RP1=0, select bank0
   992  0204  00A6               	movwf	___xxtofl@val
   993  0205  3000               	movlw	0
   994  0206  120A  158A  25A8  120A  118A  	fcall	___xxtofl
   995  020B  1283               	bcf	3,5	;RP0=0, select bank0
   996  020C  1303               	bcf	3,6	;RP1=0, select bank0
   997  020D  0829               	movf	?___xxtofl+3,w
   998  020E  1683               	bsf	3,5	;RP0=1, select bank1
   999  020F  1303               	bcf	3,6	;RP1=0, select bank1
  1000  0210  00B0               	movwf	(main@valorSetPoint+3)^(0+128)
  1001  0211  1283               	bcf	3,5	;RP0=0, select bank0
  1002  0212  1303               	bcf	3,6	;RP1=0, select bank0
  1003  0213  0828               	movf	?___xxtofl+2,w
  1004  0214  1683               	bsf	3,5	;RP0=1, select bank1
  1005  0215  1303               	bcf	3,6	;RP1=0, select bank1
  1006  0216  00AF               	movwf	(main@valorSetPoint+2)^(0+128)
  1007  0217  1283               	bcf	3,5	;RP0=0, select bank0
  1008  0218  1303               	bcf	3,6	;RP1=0, select bank0
  1009  0219  0827               	movf	?___xxtofl+1,w
  1010  021A  1683               	bsf	3,5	;RP0=1, select bank1
  1011  021B  1303               	bcf	3,6	;RP1=0, select bank1
  1012  021C  00AE               	movwf	(main@valorSetPoint+1)^(0+128)
  1013  021D  1283               	bcf	3,5	;RP0=0, select bank0
  1014  021E  1303               	bcf	3,6	;RP1=0, select bank0
  1015  021F  0826               	movf	?___xxtofl,w
  1016  0220  1683               	bsf	3,5	;RP0=1, select bank1
  1017  0221  1303               	bcf	3,6	;RP1=0, select bank1
  1018  0222  00AD               	movwf	main@valorSetPoint^(0+128)
  1019  0223                     l2098:
  1020                           
  1021                           ;main.c: 131:         if (valorSetPoint <= temperatura){
  1022  0223  083D               	movf	main@temperatura^(0+128),w
  1023  0224  1283               	bcf	3,5	;RP0=0, select bank0
  1024  0225  1303               	bcf	3,6	;RP1=0, select bank0
  1025  0226  00A6               	movwf	___xxtofl@val
  1026  0227  1683               	bsf	3,5	;RP0=1, select bank1
  1027  0228  1303               	bcf	3,6	;RP1=0, select bank1
  1028  0229  083E               	movf	(main@temperatura+1)^(0+128),w
  1029  022A  1283               	bcf	3,5	;RP0=0, select bank0
  1030  022B  1303               	bcf	3,6	;RP1=0, select bank0
  1031  022C  00A7               	movwf	___xxtofl@val+1
  1032  022D  3000               	movlw	0
  1033  022E  1BA7               	btfsc	___xxtofl@val+1,7
  1034  022F  30FF               	movlw	255
  1035  0230  00A8               	movwf	___xxtofl@val+2
  1036  0231  00A9               	movwf	___xxtofl@val+3
  1037  0232  3001               	movlw	1
  1038  0233  120A  158A  25A8  120A  118A  	fcall	___xxtofl
  1039  0238  1283               	bcf	3,5	;RP0=0, select bank0
  1040  0239  1303               	bcf	3,6	;RP1=0, select bank0
  1041  023A  0829               	movf	?___xxtofl+3,w
  1042  023B  00B7               	movwf	___flge@ff1+3
  1043  023C  0828               	movf	?___xxtofl+2,w
  1044  023D  00B6               	movwf	___flge@ff1+2
  1045  023E  0827               	movf	?___xxtofl+1,w
  1046  023F  00B5               	movwf	___flge@ff1+1
  1047  0240  0826               	movf	?___xxtofl,w
  1048  0241  00B4               	movwf	___flge@ff1
  1049  0242  1683               	bsf	3,5	;RP0=1, select bank1
  1050  0243  1303               	bcf	3,6	;RP1=0, select bank1
  1051  0244  0830               	movf	(main@valorSetPoint+3)^(0+128),w
  1052  0245  1283               	bcf	3,5	;RP0=0, select bank0
  1053  0246  1303               	bcf	3,6	;RP1=0, select bank0
  1054  0247  00BB               	movwf	___flge@ff2+3
  1055  0248  1683               	bsf	3,5	;RP0=1, select bank1
  1056  0249  1303               	bcf	3,6	;RP1=0, select bank1
  1057  024A  082F               	movf	(main@valorSetPoint+2)^(0+128),w
  1058  024B  1283               	bcf	3,5	;RP0=0, select bank0
  1059  024C  1303               	bcf	3,6	;RP1=0, select bank0
  1060  024D  00BA               	movwf	___flge@ff2+2
  1061  024E  1683               	bsf	3,5	;RP0=1, select bank1
  1062  024F  1303               	bcf	3,6	;RP1=0, select bank1
  1063  0250  082E               	movf	(main@valorSetPoint+1)^(0+128),w
  1064  0251  1283               	bcf	3,5	;RP0=0, select bank0
  1065  0252  1303               	bcf	3,6	;RP1=0, select bank0
  1066  0253  00B9               	movwf	___flge@ff2+1
  1067  0254  1683               	bsf	3,5	;RP0=1, select bank1
  1068  0255  1303               	bcf	3,6	;RP1=0, select bank1
  1069  0256  082D               	movf	main@valorSetPoint^(0+128),w
  1070  0257  1283               	bcf	3,5	;RP0=0, select bank0
  1071  0258  1303               	bcf	3,6	;RP1=0, select bank0
  1072  0259  00B8               	movwf	___flge@ff2
  1073  025A  120A  158A  2504  120A  118A  	fcall	___flge
  1074  025F  1C03               	btfss	3,0
  1075  0260  2A62               	goto	u3021
  1076  0261  2A63               	goto	u3020
  1077  0262                     u3021:
  1078  0262  2A6C               	goto	l2102
  1079  0263                     u3020:
  1080  0263                     l2100:
  1081                           
  1082                           ;main.c: 132:             cooler += 3;
  1083  0263  3003               	movlw	3
  1084  0264  1683               	bsf	3,5	;RP0=1, select bank1
  1085  0265  1303               	bcf	3,6	;RP1=0, select bank1
  1086  0266  07B1               	addwf	main@cooler^(0+128),f
  1087  0267  1803               	skipnc
  1088  0268  0AB2               	incf	(main@cooler+1)^(0+128),f
  1089  0269  3000               	movlw	0
  1090  026A  07B2               	addwf	(main@cooler+1)^(0+128),f
  1091                           
  1092                           ;main.c: 133:         } else {
  1093  026B  2A74               	goto	l2104
  1094  026C                     l2102:
  1095                           
  1096                           ;main.c: 134:             cooler -= 7;
  1097  026C  30F9               	movlw	249
  1098  026D  1683               	bsf	3,5	;RP0=1, select bank1
  1099  026E  1303               	bcf	3,6	;RP1=0, select bank1
  1100  026F  07B1               	addwf	main@cooler^(0+128),f
  1101  0270  1803               	skipnc
  1102  0271  0AB2               	incf	(main@cooler+1)^(0+128),f
  1103  0272  30FF               	movlw	255
  1104  0273  07B2               	addwf	(main@cooler+1)^(0+128),f
  1105  0274                     l2104:
  1106                           
  1107                           ;main.c: 137:         cooler = controleMaximoMinimo(cooler);
  1108  0274  0832               	movf	(main@cooler+1)^(0+128),w
  1109  0275  00F1               	movwf	controleMaximoMinimo@valor+1
  1110  0276  0831               	movf	main@cooler^(0+128),w
  1111  0277  00F0               	movwf	controleMaximoMinimo@valor
  1112  0278  120A  158A  227E  120A  118A  	fcall	_controleMaximoMinimo
  1113  027D  0871               	movf	?_controleMaximoMinimo+1,w
  1114  027E  1683               	bsf	3,5	;RP0=1, select bank1
  1115  027F  1303               	bcf	3,6	;RP1=0, select bank1
  1116  0280  00B2               	movwf	(main@cooler+1)^(0+128)
  1117  0281  0870               	movf	?_controleMaximoMinimo,w
  1118  0282  00B1               	movwf	main@cooler^(0+128)
  1119  0283                     l2106:
  1120                           
  1121                           ;main.c: 139:         PWM1_Duty(temperatura, 4000);
  1122  0283  083E               	movf	(main@temperatura+1)^(0+128),w
  1123  0284  00A6               	movwf	(PWM1_Duty@duty+1)^(0+128)
  1124  0285  083D               	movf	main@temperatura^(0+128),w
  1125  0286  00A5               	movwf	PWM1_Duty@duty^(0+128)
  1126  0287  30A0               	movlw	160
  1127  0288  00A7               	movwf	PWM1_Duty@freq^(0+128)
  1128  0289  300F               	movlw	15
  1129  028A  00A8               	movwf	(PWM1_Duty@freq^(0+128)+1)
  1130  028B  120A  158A  2664  120A  118A  	fcall	_PWM1_Duty
  1131  0290                     l2108:
  1132                           
  1133                           ;main.c: 140:         PWM2_Duty(cooler, 4000);
  1134  0290  1683               	bsf	3,5	;RP0=1, select bank1
  1135  0291  1303               	bcf	3,6	;RP1=0, select bank1
  1136  0292  0832               	movf	(main@cooler+1)^(0+128),w
  1137  0293  00A6               	movwf	(PWM2_Duty@duty+1)^(0+128)
  1138  0294  0831               	movf	main@cooler^(0+128),w
  1139  0295  00A5               	movwf	PWM2_Duty@duty^(0+128)
  1140  0296  30A0               	movlw	160
  1141  0297  00A7               	movwf	PWM2_Duty@freq^(0+128)
  1142  0298  300F               	movlw	15
  1143  0299  00A8               	movwf	(PWM2_Duty@freq^(0+128)+1)
  1144  029A  120A  158A  2732  120A  118A  	fcall	_PWM2_Duty
  1145  029F                     l2110:
  1146                           
  1147                           ;main.c: 141:         atualizaDisplay(setPoint);
  1148  029F  1683               	bsf	3,5	;RP0=1, select bank1
  1149  02A0  1303               	bcf	3,6	;RP1=0, select bank1
  1150  02A1  0834               	movf	(main@setPoint+1)^(0+128),w
  1151  02A2  1283               	bcf	3,5	;RP0=0, select bank0
  1152  02A3  1303               	bcf	3,6	;RP1=0, select bank0
  1153  02A4  00A1               	movwf	atualizaDisplay@tempSet+1
  1154  02A5  1683               	bsf	3,5	;RP0=1, select bank1
  1155  02A6  1303               	bcf	3,6	;RP1=0, select bank1
  1156  02A7  0833               	movf	main@setPoint^(0+128),w
  1157  02A8  1283               	bcf	3,5	;RP0=0, select bank0
  1158  02A9  1303               	bcf	3,6	;RP1=0, select bank0
  1159  02AA  00A0               	movwf	atualizaDisplay@tempSet
  1160  02AB  120A  118A  2081  120A  118A  	fcall	_atualizaDisplay
  1161  02B0  299F               	goto	l2092
  1162  02B1  120A  118A  2800   	ljmp	start
  1163  02B4                     __end_of_main:
  1164                           
  1165                           	psect	text1
  1166  0A7E                     __ptext1:	
  1167 ;; *************** function _controleMaximoMinimo *****************
  1168 ;; Defined at:
  1169 ;;		line 98 in file "main.c"
  1170 ;; Parameters:    Size  Location     Type
  1171 ;;  valor           2    0[COMMON] int 
  1172 ;; Auto vars:     Size  Location     Type
  1173 ;;		None
  1174 ;; Return value:  Size  Location     Type
  1175 ;;                  2    0[COMMON] int 
  1176 ;; Registers used:
  1177 ;;		wreg, status,2, btemp+1
  1178 ;; Tracked objects:
  1179 ;;		On entry : 0/0
  1180 ;;		On exit  : 0/0
  1181 ;;		Unchanged: 0/0
  1182 ;; Data sizes:     COMMON   BANK0   BANK1   BANK3   BANK2
  1183 ;;      Params:         2       0       0       0       0
  1184 ;;      Locals:         0       0       0       0       0
  1185 ;;      Temps:          0       0       0       0       0
  1186 ;;      Totals:         2       0       0       0       0
  1187 ;;Total ram usage:        2 bytes
  1188 ;; Hardware stack levels used: 1
  1189 ;; This function calls:
  1190 ;;		Nothing
  1191 ;; This function is called by:
  1192 ;;		_main
  1193 ;; This function uses a non-reentrant model
  1194 ;;
  1195                           
  1196                           
  1197                           ;psect for function _controleMaximoMinimo
  1198  0A7E                     _controleMaximoMinimo:
  1199  0A7E                     l1980:	
  1200                           ;incstack = 0
  1201                           ; Regs used in _controleMaximoMinimo: [wreg+status,2+btemp+1]
  1202                           
  1203                           
  1204                           ;main.c: 99:     if (valor < 0){
  1205  0A7E  1FF1               	btfss	controleMaximoMinimo@valor+1,7
  1206  0A7F  2A81               	goto	u2781
  1207  0A80  2A82               	goto	u2780
  1208  0A81                     u2781:
  1209  0A81  2A84               	goto	l1984
  1210  0A82                     u2780:
  1211  0A82                     l1982:
  1212                           
  1213                           ;main.c: 100:         valor = 0;
  1214  0A82  01F0               	clrf	controleMaximoMinimo@valor
  1215  0A83  01F1               	clrf	controleMaximoMinimo@valor+1
  1216  0A84                     l1984:
  1217                           
  1218                           ;main.c: 103:     if (valor > 1000){
  1219  0A84  0871               	movf	controleMaximoMinimo@valor+1,w
  1220  0A85  3A80               	xorlw	128
  1221  0A86  00FF               	movwf	btemp+1
  1222  0A87  3083               	movlw	131
  1223  0A88  027F               	subwf	btemp+1,w
  1224  0A89  1D03               	skipz
  1225  0A8A  2A8D               	goto	u2795
  1226  0A8B  30E9               	movlw	233
  1227  0A8C  0270               	subwf	controleMaximoMinimo@valor,w
  1228  0A8D                     u2795:
  1229  0A8D  1C03               	skipc
  1230  0A8E  2A90               	goto	u2791
  1231  0A8F  2A91               	goto	u2790
  1232  0A90                     u2791:
  1233  0A90  2A95               	goto	l1988
  1234  0A91                     u2790:
  1235  0A91                     l1986:
  1236                           
  1237                           ;main.c: 104:         valor = 1000;
  1238  0A91  30E8               	movlw	232
  1239  0A92  00F0               	movwf	controleMaximoMinimo@valor
  1240  0A93  3003               	movlw	3
  1241  0A94  00F1               	movwf	controleMaximoMinimo@valor+1
  1242  0A95                     l1988:
  1243  0A95                     l75:	
  1244                           ;main.c: 107:     return valor;
  1245                           
  1246  0A95  0008               	return
  1247  0A96                     __end_of_controleMaximoMinimo:
  1248                           
  1249                           	psect	text2
  1250  0010                     __ptext2:	
  1251 ;; *************** function _controlarSetPoint *****************
  1252 ;; Defined at:
  1253 ;;		line 56 in file "main.c"
  1254 ;; Parameters:    Size  Location     Type
  1255 ;;  setPoint        2    0[COMMON] int 
  1256 ;; Auto vars:     Size  Location     Type
  1257 ;;		None
  1258 ;; Return value:  Size  Location     Type
  1259 ;;                  2    0[COMMON] int 
  1260 ;; Registers used:
  1261 ;;		wreg, status,2, status,0
  1262 ;; Tracked objects:
  1263 ;;		On entry : 0/0
  1264 ;;		On exit  : 0/0
  1265 ;;		Unchanged: 0/0
  1266 ;; Data sizes:     COMMON   BANK0   BANK1   BANK3   BANK2
  1267 ;;      Params:         2       0       0       0       0
  1268 ;;      Locals:         0       0       0       0       0
  1269 ;;      Temps:          1       0       0       0       0
  1270 ;;      Totals:         3       0       0       0       0
  1271 ;;Total ram usage:        3 bytes
  1272 ;; Hardware stack levels used: 1
  1273 ;; This function calls:
  1274 ;;		Nothing
  1275 ;; This function is called by:
  1276 ;;		_main
  1277 ;; This function uses a non-reentrant model
  1278 ;;
  1279                           
  1280                           
  1281                           ;psect for function _controlarSetPoint
  1282  0010                     _controlarSetPoint:
  1283  0010                     l1944:	
  1284                           ;incstack = 0
  1285                           ; Regs used in _controlarSetPoint: [wreg+status,2+status,0]
  1286                           
  1287                           
  1288                           ;main.c: 57:     static char S1Anterior;;main.c: 58:     static char S1Atual;;main.c: 59
      +                          :     static char S2Anterior;;main.c: 60:     static char S2Atual;;main.c: 61:     stati
      +                          c char S3Anterior;;main.c: 62:     static char S3Atual;;main.c: 63:     static char S4An
      +                          terior;;main.c: 64:     static char S4Atual;;main.c: 66:     S1Atual = RB0;
  1289  0010  3000               	movlw	0
  1290  0011  1283               	bcf	3,5	;RP0=0, select bank0
  1291  0012  1303               	bcf	3,6	;RP1=0, select bank0
  1292  0013  1806               	btfsc	6,0	;volatile
  1293  0014  3001               	movlw	1
  1294  0015  1683               	bsf	3,5	;RP0=1, select bank1
  1295  0016  1303               	bcf	3,6	;RP1=0, select bank1
  1296  0017  00BB               	movwf	controlarSetPoint@S1Atual^(0+128)
  1297  0018                     l1946:
  1298                           
  1299                           ;main.c: 68:     if((S1Atual)&&(!S1Anterior)){
  1300  0018  083B               	movf	controlarSetPoint@S1Atual^(0+128),w
  1301  0019  1903               	btfsc	3,2
  1302  001A  281C               	goto	u2701
  1303  001B  281D               	goto	u2700
  1304  001C                     u2701:
  1305  001C  2828               	goto	l66
  1306  001D                     u2700:
  1307  001D                     l1948:
  1308  001D  083C               	movf	controlarSetPoint@S1Anterior^(0+128),w
  1309  001E  1D03               	btfss	3,2
  1310  001F  2821               	goto	u2711
  1311  0020  2822               	goto	u2710
  1312  0021                     u2711:
  1313  0021  2828               	goto	l66
  1314  0022                     u2710:
  1315  0022                     l1950:
  1316                           
  1317                           ;main.c: 69:         setPoint += 100;
  1318  0022  3064               	movlw	100
  1319  0023  07F0               	addwf	controlarSetPoint@setPoint,f
  1320  0024  1803               	skipnc
  1321  0025  0AF1               	incf	controlarSetPoint@setPoint+1,f
  1322  0026  3000               	movlw	0
  1323  0027  07F1               	addwf	controlarSetPoint@setPoint+1,f
  1324  0028                     l66:	
  1325                           ;main.c: 70:     }
  1326                           
  1327                           
  1328                           ;main.c: 72:     S1Anterior = S1Atual;
  1329  0028  083B               	movf	controlarSetPoint@S1Atual^(0+128),w
  1330  0029  00F2               	movwf	??_controlarSetPoint
  1331  002A  0872               	movf	??_controlarSetPoint,w
  1332  002B  00BC               	movwf	controlarSetPoint@S1Anterior^(0+128)
  1333  002C                     l1952:
  1334                           
  1335                           ;main.c: 73:     S2Atual = RB1;
  1336  002C  3000               	movlw	0
  1337  002D  1283               	bcf	3,5	;RP0=0, select bank0
  1338  002E  1303               	bcf	3,6	;RP1=0, select bank0
  1339  002F  1886               	btfsc	6,1	;volatile
  1340  0030  3001               	movlw	1
  1341  0031  1683               	bsf	3,5	;RP0=1, select bank1
  1342  0032  1303               	bcf	3,6	;RP1=0, select bank1
  1343  0033  00B9               	movwf	controlarSetPoint@S2Atual^(0+128)
  1344  0034                     l1954:
  1345                           
  1346                           ;main.c: 75:     if((S2Atual)&&(!S2Anterior)){
  1347  0034  0839               	movf	controlarSetPoint@S2Atual^(0+128),w
  1348  0035  1903               	btfsc	3,2
  1349  0036  2838               	goto	u2721
  1350  0037  2839               	goto	u2720
  1351  0038                     u2721:
  1352  0038  2844               	goto	l67
  1353  0039                     u2720:
  1354  0039                     l1956:
  1355  0039  083A               	movf	controlarSetPoint@S2Anterior^(0+128),w
  1356  003A  1D03               	btfss	3,2
  1357  003B  283D               	goto	u2731
  1358  003C  283E               	goto	u2730
  1359  003D                     u2731:
  1360  003D  2844               	goto	l67
  1361  003E                     u2730:
  1362  003E                     l1958:
  1363                           
  1364                           ;main.c: 76:         setPoint -= 100;
  1365  003E  309C               	movlw	156
  1366  003F  07F0               	addwf	controlarSetPoint@setPoint,f
  1367  0040  1803               	skipnc
  1368  0041  0AF1               	incf	controlarSetPoint@setPoint+1,f
  1369  0042  30FF               	movlw	255
  1370  0043  07F1               	addwf	controlarSetPoint@setPoint+1,f
  1371  0044                     l67:	
  1372                           ;main.c: 77:     }
  1373                           
  1374                           
  1375                           ;main.c: 79:     S2Anterior = S2Atual;
  1376  0044  0839               	movf	controlarSetPoint@S2Atual^(0+128),w
  1377  0045  00F2               	movwf	??_controlarSetPoint
  1378  0046  0872               	movf	??_controlarSetPoint,w
  1379  0047  00BA               	movwf	controlarSetPoint@S2Anterior^(0+128)
  1380  0048                     l1960:
  1381                           
  1382                           ;main.c: 80:     S3Atual = RB2;
  1383  0048  3000               	movlw	0
  1384  0049  1283               	bcf	3,5	;RP0=0, select bank0
  1385  004A  1303               	bcf	3,6	;RP1=0, select bank0
  1386  004B  1906               	btfsc	6,2	;volatile
  1387  004C  3001               	movlw	1
  1388  004D  1683               	bsf	3,5	;RP0=1, select bank1
  1389  004E  1303               	bcf	3,6	;RP1=0, select bank1
  1390  004F  00B7               	movwf	controlarSetPoint@S3Atual^(0+128)
  1391  0050                     l1962:
  1392                           
  1393                           ;main.c: 82:     if((S3Atual)&&(!S3Anterior)){
  1394  0050  0837               	movf	controlarSetPoint@S3Atual^(0+128),w
  1395  0051  1903               	btfsc	3,2
  1396  0052  2854               	goto	u2741
  1397  0053  2855               	goto	u2740
  1398  0054                     u2741:
  1399  0054  2860               	goto	l68
  1400  0055                     u2740:
  1401  0055                     l1964:
  1402  0055  0838               	movf	controlarSetPoint@S3Anterior^(0+128),w
  1403  0056  1D03               	btfss	3,2
  1404  0057  2859               	goto	u2751
  1405  0058  285A               	goto	u2750
  1406  0059                     u2751:
  1407  0059  2860               	goto	l68
  1408  005A                     u2750:
  1409  005A                     l1966:
  1410                           
  1411                           ;main.c: 83:         setPoint += 10;
  1412  005A  300A               	movlw	10
  1413  005B  07F0               	addwf	controlarSetPoint@setPoint,f
  1414  005C  1803               	skipnc
  1415  005D  0AF1               	incf	controlarSetPoint@setPoint+1,f
  1416  005E  3000               	movlw	0
  1417  005F  07F1               	addwf	controlarSetPoint@setPoint+1,f
  1418  0060                     l68:	
  1419                           ;main.c: 84:     }
  1420                           
  1421                           
  1422                           ;main.c: 86:     S3Anterior = S3Atual;
  1423  0060  0837               	movf	controlarSetPoint@S3Atual^(0+128),w
  1424  0061  00F2               	movwf	??_controlarSetPoint
  1425  0062  0872               	movf	??_controlarSetPoint,w
  1426  0063  00B8               	movwf	controlarSetPoint@S3Anterior^(0+128)
  1427  0064                     l1968:
  1428                           
  1429                           ;main.c: 87:     S4Atual = RB3;
  1430  0064  3000               	movlw	0
  1431  0065  1283               	bcf	3,5	;RP0=0, select bank0
  1432  0066  1303               	bcf	3,6	;RP1=0, select bank0
  1433  0067  1986               	btfsc	6,3	;volatile
  1434  0068  3001               	movlw	1
  1435  0069  1683               	bsf	3,5	;RP0=1, select bank1
  1436  006A  1303               	bcf	3,6	;RP1=0, select bank1
  1437  006B  00B5               	movwf	controlarSetPoint@S4Atual^(0+128)
  1438  006C                     l1970:
  1439                           
  1440                           ;main.c: 89:     if((S4Atual)&&(!S4Anterior)){
  1441  006C  0835               	movf	controlarSetPoint@S4Atual^(0+128),w
  1442  006D  1903               	btfsc	3,2
  1443  006E  2870               	goto	u2761
  1444  006F  2871               	goto	u2760
  1445  0070                     u2761:
  1446  0070  287C               	goto	l69
  1447  0071                     u2760:
  1448  0071                     l1972:
  1449  0071  0836               	movf	controlarSetPoint@S4Anterior^(0+128),w
  1450  0072  1D03               	btfss	3,2
  1451  0073  2875               	goto	u2771
  1452  0074  2876               	goto	u2770
  1453  0075                     u2771:
  1454  0075  287C               	goto	l69
  1455  0076                     u2770:
  1456  0076                     l1974:
  1457                           
  1458                           ;main.c: 90:         setPoint -= 10;
  1459  0076  30F6               	movlw	246
  1460  0077  07F0               	addwf	controlarSetPoint@setPoint,f
  1461  0078  1803               	skipnc
  1462  0079  0AF1               	incf	controlarSetPoint@setPoint+1,f
  1463  007A  30FF               	movlw	255
  1464  007B  07F1               	addwf	controlarSetPoint@setPoint+1,f
  1465  007C                     l69:	
  1466                           ;main.c: 91:     }
  1467                           
  1468                           
  1469                           ;main.c: 93:     S4Anterior = S4Atual;
  1470  007C  0835               	movf	controlarSetPoint@S4Atual^(0+128),w
  1471  007D  00F2               	movwf	??_controlarSetPoint
  1472  007E  0872               	movf	??_controlarSetPoint,w
  1473  007F  00B6               	movwf	controlarSetPoint@S4Anterior^(0+128)
  1474  0080                     l1976:
  1475  0080                     l70:	
  1476                           ;main.c: 95:     return setPoint;
  1477                           
  1478  0080  0008               	return
  1479  0081                     __end_of_controlarSetPoint:
  1480                           
  1481                           	psect	text3
  1482  0081                     __ptext3:	
  1483 ;; *************** function _atualizaDisplay *****************
  1484 ;; Defined at:
  1485 ;;		line 33 in file "main.c"
  1486 ;; Parameters:    Size  Location     Type
  1487 ;;  tempSet         2    0[BANK0 ] unsigned int 
  1488 ;; Auto vars:     Size  Location     Type
  1489 ;;  unidade         2   10[BANK0 ] int 
  1490 ;;  dezena          2    8[BANK0 ] int 
  1491 ;;  centena         2    6[BANK0 ] int 
  1492 ;;  milhar          2    4[BANK0 ] int 
  1493 ;; Return value:  Size  Location     Type
  1494 ;;                  1    wreg      void 
  1495 ;; Registers used:
  1496 ;;		wreg, fsr0l, fsr0h, status,2, status,0, pclath, cstack
  1497 ;; Tracked objects:
  1498 ;;		On entry : 0/0
  1499 ;;		On exit  : 0/0
  1500 ;;		Unchanged: 0/0
  1501 ;; Data sizes:     COMMON   BANK0   BANK1   BANK3   BANK2
  1502 ;;      Params:         0       2       0       0       0
  1503 ;;      Locals:         0      12       0       0       0
  1504 ;;      Temps:          0       2       0       0       0
  1505 ;;      Totals:         0      16       0       0       0
  1506 ;;Total ram usage:       16 bytes
  1507 ;; Hardware stack levels used: 1
  1508 ;; Hardware stack levels required when called: 1
  1509 ;; This function calls:
  1510 ;;		___lwdiv
  1511 ;;		___lwmod
  1512 ;; This function is called by:
  1513 ;;		_main
  1514 ;; This function uses a non-reentrant model
  1515 ;;
  1516                           
  1517                           
  1518                           ;psect for function _atualizaDisplay
  1519  0081                     _atualizaDisplay:
  1520  0081                     l1910:	
  1521                           ;incstack = 0
  1522                           ; Regs used in _atualizaDisplay: [wreg-fsr0h+status,2+status,0+pclath+cstack]
  1523                           
  1524                           
  1525                           ;main.c: 34:     int milhar = tempSet/1000;
  1526  0081  30E8               	movlw	232
  1527  0082  00F6               	movwf	___lwdiv@divisor
  1528  0083  3003               	movlw	3
  1529  0084  00F7               	movwf	___lwdiv@divisor+1
  1530  0085  1283               	bcf	3,5	;RP0=0, select bank0
  1531  0086  1303               	bcf	3,6	;RP1=0, select bank0
  1532  0087  0821               	movf	atualizaDisplay@tempSet+1,w
  1533  0088  00F9               	movwf	___lwdiv@dividend+1
  1534  0089  0820               	movf	atualizaDisplay@tempSet,w
  1535  008A  00F8               	movwf	___lwdiv@dividend
  1536  008B  120A  158A  2387  120A  118A  	fcall	___lwdiv
  1537  0090  0877               	movf	?___lwdiv+1,w
  1538  0091  1283               	bcf	3,5	;RP0=0, select bank0
  1539  0092  1303               	bcf	3,6	;RP1=0, select bank0
  1540  0093  00A5               	movwf	atualizaDisplay@milhar+1
  1541  0094  0876               	movf	?___lwdiv,w
  1542  0095  00A4               	movwf	atualizaDisplay@milhar
  1543                           
  1544                           ;main.c: 35:     int centena = (tempSet%1000)/100;
  1545  0096  3064               	movlw	100
  1546  0097  00F6               	movwf	___lwdiv@divisor
  1547  0098  3000               	movlw	0
  1548  0099  00F7               	movwf	___lwdiv@divisor+1
  1549  009A  0821               	movf	atualizaDisplay@tempSet+1,w
  1550  009B  00F3               	movwf	___lwmod@dividend+1
  1551  009C  0820               	movf	atualizaDisplay@tempSet,w
  1552  009D  00F2               	movwf	___lwmod@dividend
  1553  009E  30E8               	movlw	232
  1554  009F  00F0               	movwf	___lwmod@divisor
  1555  00A0  3003               	movlw	3
  1556  00A1  00F1               	movwf	___lwmod@divisor+1
  1557  00A2  120A  158A  234D  120A  118A  	fcall	___lwmod
  1558  00A7  0871               	movf	?___lwmod+1,w
  1559  00A8  00F9               	movwf	___lwdiv@dividend+1
  1560  00A9  0870               	movf	?___lwmod,w
  1561  00AA  00F8               	movwf	___lwdiv@dividend
  1562  00AB  120A  158A  2387  120A  118A  	fcall	___lwdiv
  1563  00B0  0877               	movf	?___lwdiv+1,w
  1564  00B1  1283               	bcf	3,5	;RP0=0, select bank0
  1565  00B2  1303               	bcf	3,6	;RP1=0, select bank0
  1566  00B3  00A7               	movwf	atualizaDisplay@centena+1
  1567  00B4  0876               	movf	?___lwdiv,w
  1568  00B5  00A6               	movwf	atualizaDisplay@centena
  1569                           
  1570                           ;main.c: 36:     int dezena = ((tempSet%1000)%100)/10;
  1571  00B6  0821               	movf	atualizaDisplay@tempSet+1,w
  1572  00B7  00F3               	movwf	___lwmod@dividend+1
  1573  00B8  0820               	movf	atualizaDisplay@tempSet,w
  1574  00B9  00F2               	movwf	___lwmod@dividend
  1575  00BA  30E8               	movlw	232
  1576  00BB  00F0               	movwf	___lwmod@divisor
  1577  00BC  3003               	movlw	3
  1578  00BD  00F1               	movwf	___lwmod@divisor+1
  1579  00BE  120A  158A  234D  120A  118A  	fcall	___lwmod
  1580  00C3  0871               	movf	?___lwmod+1,w
  1581  00C4  1283               	bcf	3,5	;RP0=0, select bank0
  1582  00C5  1303               	bcf	3,6	;RP1=0, select bank0
  1583  00C6  00AF               	movwf	_atualizaDisplay$755+1
  1584  00C7  0870               	movf	?___lwmod,w
  1585  00C8  00AE               	movwf	_atualizaDisplay$755
  1586                           
  1587                           ;main.c: 36:     int dezena = ((tempSet%1000)%100)/10;
  1588  00C9  300A               	movlw	10
  1589  00CA  00F6               	movwf	___lwdiv@divisor
  1590  00CB  3000               	movlw	0
  1591  00CC  00F7               	movwf	___lwdiv@divisor+1
  1592  00CD  082F               	movf	_atualizaDisplay$755+1,w
  1593  00CE  00F3               	movwf	___lwmod@dividend+1
  1594  00CF  082E               	movf	_atualizaDisplay$755,w
  1595  00D0  00F2               	movwf	___lwmod@dividend
  1596  00D1  3064               	movlw	100
  1597  00D2  00F0               	movwf	___lwmod@divisor
  1598  00D3  3000               	movlw	0
  1599  00D4  00F1               	movwf	___lwmod@divisor+1
  1600  00D5  120A  158A  234D  120A  118A  	fcall	___lwmod
  1601  00DA  0871               	movf	?___lwmod+1,w
  1602  00DB  00F9               	movwf	___lwdiv@dividend+1
  1603  00DC  0870               	movf	?___lwmod,w
  1604  00DD  00F8               	movwf	___lwdiv@dividend
  1605  00DE  120A  158A  2387  120A  118A  	fcall	___lwdiv
  1606  00E3  0877               	movf	?___lwdiv+1,w
  1607  00E4  1283               	bcf	3,5	;RP0=0, select bank0
  1608  00E5  1303               	bcf	3,6	;RP1=0, select bank0
  1609  00E6  00A9               	movwf	atualizaDisplay@dezena+1
  1610  00E7  0876               	movf	?___lwdiv,w
  1611  00E8  00A8               	movwf	atualizaDisplay@dezena
  1612                           
  1613                           ;main.c: 37:     int unidade = ((tempSet%1000)%100)%10;
  1614  00E9  0821               	movf	atualizaDisplay@tempSet+1,w
  1615  00EA  00F3               	movwf	___lwmod@dividend+1
  1616  00EB  0820               	movf	atualizaDisplay@tempSet,w
  1617  00EC  00F2               	movwf	___lwmod@dividend
  1618  00ED  30E8               	movlw	232
  1619  00EE  00F0               	movwf	___lwmod@divisor
  1620  00EF  3003               	movlw	3
  1621  00F0  00F1               	movwf	___lwmod@divisor+1
  1622  00F1  120A  158A  234D  120A  118A  	fcall	___lwmod
  1623  00F6  0871               	movf	?___lwmod+1,w
  1624  00F7  1283               	bcf	3,5	;RP0=0, select bank0
  1625  00F8  1303               	bcf	3,6	;RP1=0, select bank0
  1626  00F9  00AF               	movwf	_atualizaDisplay$755+1
  1627  00FA  0870               	movf	?___lwmod,w
  1628  00FB  00AE               	movwf	_atualizaDisplay$755
  1629                           
  1630                           ;main.c: 37:     int unidade = ((tempSet%1000)%100)%10;
  1631  00FC  082F               	movf	_atualizaDisplay$755+1,w
  1632  00FD  00F3               	movwf	___lwmod@dividend+1
  1633  00FE  082E               	movf	_atualizaDisplay$755,w
  1634  00FF  00F2               	movwf	___lwmod@dividend
  1635  0100  3064               	movlw	100
  1636  0101  00F0               	movwf	___lwmod@divisor
  1637  0102  3000               	movlw	0
  1638  0103  00F1               	movwf	___lwmod@divisor+1
  1639  0104  120A  158A  234D  120A  118A  	fcall	___lwmod
  1640  0109  0871               	movf	?___lwmod+1,w
  1641  010A  1283               	bcf	3,5	;RP0=0, select bank0
  1642  010B  1303               	bcf	3,6	;RP1=0, select bank0
  1643  010C  00AD               	movwf	_atualizaDisplay$756+1
  1644  010D  0870               	movf	?___lwmod,w
  1645  010E  00AC               	movwf	_atualizaDisplay$756
  1646                           
  1647                           ;main.c: 37:     int unidade = ((tempSet%1000)%100)%10;
  1648  010F  300A               	movlw	10
  1649  0110  00F0               	movwf	___lwmod@divisor
  1650  0111  3000               	movlw	0
  1651  0112  00F1               	movwf	___lwmod@divisor+1
  1652  0113  082D               	movf	_atualizaDisplay$756+1,w
  1653  0114  00F3               	movwf	___lwmod@dividend+1
  1654  0115  082C               	movf	_atualizaDisplay$756,w
  1655  0116  00F2               	movwf	___lwmod@dividend
  1656  0117  120A  158A  234D  120A  118A  	fcall	___lwmod
  1657  011C  0871               	movf	?___lwmod+1,w
  1658  011D  1283               	bcf	3,5	;RP0=0, select bank0
  1659  011E  1303               	bcf	3,6	;RP1=0, select bank0
  1660  011F  00AB               	movwf	atualizaDisplay@unidade+1
  1661  0120  0870               	movf	?___lwmod,w
  1662  0121  00AA               	movwf	atualizaDisplay@unidade
  1663  0122                     l1912:
  1664                           
  1665                           ;main.c: 38:     PORTD = digito[milhar];
  1666  0122  0824               	movf	atualizaDisplay@milhar,w
  1667  0123  3E01               	addlw	low ((_digito-__stringbase)| (0+32768))
  1668  0124  0084               	movwf	4
  1669  0125  120A  158A  2000  120A  118A  	fcall	stringdir
  1670  012A  0088               	movwf	8	;volatile
  1671  012B                     l1914:
  1672                           
  1673                           ;main.c: 39:     RB7 = 1;
  1674  012B  1786               	bsf	6,7	;volatile
  1675  012C                     l1916:
  1676                           
  1677                           ;main.c: 40:     _delay((unsigned long)((10)*(4000000/4000.0)));
  1678  012C  300D               	movlw	13
  1679  012D  1283               	bcf	3,5	;RP0=0, select bank0
  1680  012E  1303               	bcf	3,6	;RP1=0, select bank0
  1681  012F  00A3               	movwf	??_atualizaDisplay+1
  1682  0130  30FB               	movlw	251
  1683  0131  00A2               	movwf	??_atualizaDisplay
  1684  0132                     u3037:
  1685  0132  0BA2               	decfsz	??_atualizaDisplay,f
  1686  0133  2932               	goto	u3037
  1687  0134  0BA3               	decfsz	??_atualizaDisplay+1,f
  1688  0135  2932               	goto	u3037
  1689  0136                     l1918:
  1690                           
  1691                           ;main.c: 41:     RB7 = 0;
  1692  0136  1283               	bcf	3,5	;RP0=0, select bank0
  1693  0137  1303               	bcf	3,6	;RP1=0, select bank0
  1694  0138  1386               	bcf	6,7	;volatile
  1695  0139                     l1920:
  1696                           
  1697                           ;main.c: 42:     PORTD = digito[centena];
  1698  0139  0826               	movf	atualizaDisplay@centena,w
  1699  013A  3E01               	addlw	low ((_digito-__stringbase)| (0+32768))
  1700  013B  0084               	movwf	4
  1701  013C  120A  158A  2000  120A  118A  	fcall	stringdir
  1702  0141  0088               	movwf	8	;volatile
  1703  0142                     l1922:
  1704                           
  1705                           ;main.c: 43:     RB6 = 1;
  1706  0142  1706               	bsf	6,6	;volatile
  1707  0143                     l1924:
  1708                           
  1709                           ;main.c: 44:     _delay((unsigned long)((10)*(4000000/4000.0)));
  1710  0143  300D               	movlw	13
  1711  0144  1283               	bcf	3,5	;RP0=0, select bank0
  1712  0145  1303               	bcf	3,6	;RP1=0, select bank0
  1713  0146  00A3               	movwf	??_atualizaDisplay+1
  1714  0147  30FB               	movlw	251
  1715  0148  00A2               	movwf	??_atualizaDisplay
  1716  0149                     u3047:
  1717  0149  0BA2               	decfsz	??_atualizaDisplay,f
  1718  014A  2949               	goto	u3047
  1719  014B  0BA3               	decfsz	??_atualizaDisplay+1,f
  1720  014C  2949               	goto	u3047
  1721  014D                     l1926:
  1722                           
  1723                           ;main.c: 45:     RB6 = 0;
  1724  014D  1283               	bcf	3,5	;RP0=0, select bank0
  1725  014E  1303               	bcf	3,6	;RP1=0, select bank0
  1726  014F  1306               	bcf	6,6	;volatile
  1727  0150                     l1928:
  1728                           
  1729                           ;main.c: 46:     PORTD = digito[dezena];
  1730  0150  0828               	movf	atualizaDisplay@dezena,w
  1731  0151  3E01               	addlw	low ((_digito-__stringbase)| (0+32768))
  1732  0152  0084               	movwf	4
  1733  0153  120A  158A  2000  120A  118A  	fcall	stringdir
  1734  0158  0088               	movwf	8	;volatile
  1735  0159                     l1930:
  1736                           
  1737                           ;main.c: 47:     RB5 = 1;
  1738  0159  1686               	bsf	6,5	;volatile
  1739  015A                     l1932:
  1740                           
  1741                           ;main.c: 48:     _delay((unsigned long)((10)*(4000000/4000.0)));
  1742  015A  300D               	movlw	13
  1743  015B  1283               	bcf	3,5	;RP0=0, select bank0
  1744  015C  1303               	bcf	3,6	;RP1=0, select bank0
  1745  015D  00A3               	movwf	??_atualizaDisplay+1
  1746  015E  30FB               	movlw	251
  1747  015F  00A2               	movwf	??_atualizaDisplay
  1748  0160                     u3057:
  1749  0160  0BA2               	decfsz	??_atualizaDisplay,f
  1750  0161  2960               	goto	u3057
  1751  0162  0BA3               	decfsz	??_atualizaDisplay+1,f
  1752  0163  2960               	goto	u3057
  1753  0164                     l1934:
  1754                           
  1755                           ;main.c: 49:     RB5 = 0;
  1756  0164  1283               	bcf	3,5	;RP0=0, select bank0
  1757  0165  1303               	bcf	3,6	;RP1=0, select bank0
  1758  0166  1286               	bcf	6,5	;volatile
  1759  0167                     l1936:
  1760                           
  1761                           ;main.c: 50:     PORTD = digito[unidade];
  1762  0167  082A               	movf	atualizaDisplay@unidade,w
  1763  0168  3E01               	addlw	low ((_digito-__stringbase)| (0+32768))
  1764  0169  0084               	movwf	4
  1765  016A  120A  158A  2000  120A  118A  	fcall	stringdir
  1766  016F  0088               	movwf	8	;volatile
  1767  0170                     l1938:
  1768                           
  1769                           ;main.c: 51:     RB4 = 1;
  1770  0170  1606               	bsf	6,4	;volatile
  1771  0171                     l1940:
  1772                           
  1773                           ;main.c: 52:     _delay((unsigned long)((10)*(4000000/4000.0)));
  1774  0171  300D               	movlw	13
  1775  0172  1283               	bcf	3,5	;RP0=0, select bank0
  1776  0173  1303               	bcf	3,6	;RP1=0, select bank0
  1777  0174  00A3               	movwf	??_atualizaDisplay+1
  1778  0175  30FB               	movlw	251
  1779  0176  00A2               	movwf	??_atualizaDisplay
  1780  0177                     u3067:
  1781  0177  0BA2               	decfsz	??_atualizaDisplay,f
  1782  0178  2977               	goto	u3067
  1783  0179  0BA3               	decfsz	??_atualizaDisplay+1,f
  1784  017A  2977               	goto	u3067
  1785  017B                     l1942:
  1786                           
  1787                           ;main.c: 53:     RB4 = 0;
  1788  017B  1283               	bcf	3,5	;RP0=0, select bank0
  1789  017C  1303               	bcf	3,6	;RP1=0, select bank0
  1790  017D  1206               	bcf	6,4	;volatile
  1791  017E                     l47:
  1792  017E  0008               	return
  1793  017F                     __end_of_atualizaDisplay:
  1794                           
  1795                           	psect	text4
  1796  0B4D                     __ptext4:	
  1797 ;; *************** function ___lwmod *****************
  1798 ;; Defined at:
  1799 ;;		line 5 in file "C:\Program Files\Microchip\xc8\v2.32\pic\sources\c90\common\lwmod.c"
  1800 ;; Parameters:    Size  Location     Type
  1801 ;;  divisor         2    0[COMMON] unsigned int 
  1802 ;;  dividend        2    2[COMMON] unsigned int 
  1803 ;; Auto vars:     Size  Location     Type
  1804 ;;  counter         1    5[COMMON] unsigned char 
  1805 ;; Return value:  Size  Location     Type
  1806 ;;                  2    0[COMMON] unsigned int 
  1807 ;; Registers used:
  1808 ;;		wreg, status,2, status,0
  1809 ;; Tracked objects:
  1810 ;;		On entry : 0/0
  1811 ;;		On exit  : 0/0
  1812 ;;		Unchanged: 0/0
  1813 ;; Data sizes:     COMMON   BANK0   BANK1   BANK3   BANK2
  1814 ;;      Params:         4       0       0       0       0
  1815 ;;      Locals:         1       0       0       0       0
  1816 ;;      Temps:          1       0       0       0       0
  1817 ;;      Totals:         6       0       0       0       0
  1818 ;;Total ram usage:        6 bytes
  1819 ;; Hardware stack levels used: 1
  1820 ;; This function calls:
  1821 ;;		Nothing
  1822 ;; This function is called by:
  1823 ;;		_atualizaDisplay
  1824 ;; This function uses a non-reentrant model
  1825 ;;
  1826                           
  1827                           
  1828                           ;psect for function ___lwmod
  1829  0B4D                     ___lwmod:
  1830  0B4D                     l1562:	
  1831                           ;incstack = 0
  1832                           ; Regs used in ___lwmod: [wreg+status,2+status,0]
  1833                           
  1834  0B4D  0870               	movf	___lwmod@divisor,w
  1835  0B4E  0471               	iorwf	___lwmod@divisor+1,w
  1836  0B4F  1903               	btfsc	3,2
  1837  0B50  2B52               	goto	u1841
  1838  0B51  2B53               	goto	u1840
  1839  0B52                     u1841:
  1840  0B52  2B82               	goto	l1580
  1841  0B53                     u1840:
  1842  0B53                     l1564:
  1843  0B53  01F5               	clrf	___lwmod@counter
  1844  0B54  0AF5               	incf	___lwmod@counter,f
  1845  0B55  2B61               	goto	l1570
  1846  0B56                     l1566:
  1847  0B56  3001               	movlw	1
  1848  0B57                     u1855:
  1849  0B57  1003               	clrc
  1850  0B58  0DF0               	rlf	___lwmod@divisor,f
  1851  0B59  0DF1               	rlf	___lwmod@divisor+1,f
  1852  0B5A  3EFF               	addlw	-1
  1853  0B5B  1D03               	skipz
  1854  0B5C  2B57               	goto	u1855
  1855  0B5D                     l1568:
  1856  0B5D  3001               	movlw	1
  1857  0B5E  00F4               	movwf	??___lwmod
  1858  0B5F  0874               	movf	??___lwmod,w
  1859  0B60  07F5               	addwf	___lwmod@counter,f
  1860  0B61                     l1570:
  1861  0B61  1FF1               	btfss	___lwmod@divisor+1,7
  1862  0B62  2B64               	goto	u1861
  1863  0B63  2B65               	goto	u1860
  1864  0B64                     u1861:
  1865  0B64  2B56               	goto	l1566
  1866  0B65                     u1860:
  1867  0B65                     l1572:
  1868  0B65  0871               	movf	___lwmod@divisor+1,w
  1869  0B66  0273               	subwf	___lwmod@dividend+1,w
  1870  0B67  1D03               	skipz
  1871  0B68  2B6B               	goto	u1875
  1872  0B69  0870               	movf	___lwmod@divisor,w
  1873  0B6A  0272               	subwf	___lwmod@dividend,w
  1874  0B6B                     u1875:
  1875  0B6B  1C03               	skipc
  1876  0B6C  2B6E               	goto	u1871
  1877  0B6D  2B6F               	goto	u1870
  1878  0B6E                     u1871:
  1879  0B6E  2B75               	goto	l1576
  1880  0B6F                     u1870:
  1881  0B6F                     l1574:
  1882  0B6F  0870               	movf	___lwmod@divisor,w
  1883  0B70  02F2               	subwf	___lwmod@dividend,f
  1884  0B71  0871               	movf	___lwmod@divisor+1,w
  1885  0B72  1C03               	skipc
  1886  0B73  03F3               	decf	___lwmod@dividend+1,f
  1887  0B74  02F3               	subwf	___lwmod@dividend+1,f
  1888  0B75                     l1576:
  1889  0B75  3001               	movlw	1
  1890  0B76                     u1885:
  1891  0B76  1003               	clrc
  1892  0B77  0CF1               	rrf	___lwmod@divisor+1,f
  1893  0B78  0CF0               	rrf	___lwmod@divisor,f
  1894  0B79  3EFF               	addlw	-1
  1895  0B7A  1D03               	skipz
  1896  0B7B  2B76               	goto	u1885
  1897  0B7C                     l1578:
  1898  0B7C  3001               	movlw	1
  1899  0B7D  02F5               	subwf	___lwmod@counter,f
  1900  0B7E  1D03               	btfss	3,2
  1901  0B7F  2B81               	goto	u1891
  1902  0B80  2B82               	goto	u1890
  1903  0B81                     u1891:
  1904  0B81  2B65               	goto	l1572
  1905  0B82                     u1890:
  1906  0B82                     l1580:
  1907  0B82  0873               	movf	___lwmod@dividend+1,w
  1908  0B83  00F1               	movwf	?___lwmod+1
  1909  0B84  0872               	movf	___lwmod@dividend,w
  1910  0B85  00F0               	movwf	?___lwmod
  1911  0B86                     l532:
  1912  0B86  0008               	return
  1913  0B87                     __end_of___lwmod:
  1914                           
  1915                           	psect	text5
  1916  0B87                     __ptext5:	
  1917 ;; *************** function ___lwdiv *****************
  1918 ;; Defined at:
  1919 ;;		line 5 in file "C:\Program Files\Microchip\xc8\v2.32\pic\sources\c90\common\lwdiv.c"
  1920 ;; Parameters:    Size  Location     Type
  1921 ;;  divisor         2    6[COMMON] unsigned int 
  1922 ;;  dividend        2    8[COMMON] unsigned int 
  1923 ;; Auto vars:     Size  Location     Type
  1924 ;;  quotient        2   11[COMMON] unsigned int 
  1925 ;;  counter         1   13[COMMON] unsigned char 
  1926 ;; Return value:  Size  Location     Type
  1927 ;;                  2    6[COMMON] unsigned int 
  1928 ;; Registers used:
  1929 ;;		wreg, status,2, status,0
  1930 ;; Tracked objects:
  1931 ;;		On entry : 0/0
  1932 ;;		On exit  : 0/0
  1933 ;;		Unchanged: 0/0
  1934 ;; Data sizes:     COMMON   BANK0   BANK1   BANK3   BANK2
  1935 ;;      Params:         4       0       0       0       0
  1936 ;;      Locals:         3       0       0       0       0
  1937 ;;      Temps:          1       0       0       0       0
  1938 ;;      Totals:         8       0       0       0       0
  1939 ;;Total ram usage:        8 bytes
  1940 ;; Hardware stack levels used: 1
  1941 ;; This function calls:
  1942 ;;		Nothing
  1943 ;; This function is called by:
  1944 ;;		_atualizaDisplay
  1945 ;;		_main
  1946 ;; This function uses a non-reentrant model
  1947 ;;
  1948                           
  1949                           
  1950                           ;psect for function ___lwdiv
  1951  0B87                     ___lwdiv:
  1952  0B87                     l1536:	
  1953                           ;incstack = 0
  1954                           ; Regs used in ___lwdiv: [wreg+status,2+status,0]
  1955                           
  1956  0B87  01FB               	clrf	___lwdiv@quotient
  1957  0B88  01FC               	clrf	___lwdiv@quotient+1
  1958  0B89                     l1538:
  1959  0B89  0876               	movf	___lwdiv@divisor,w
  1960  0B8A  0477               	iorwf	___lwdiv@divisor+1,w
  1961  0B8B  1903               	btfsc	3,2
  1962  0B8C  2B8E               	goto	u1771
  1963  0B8D  2B8F               	goto	u1770
  1964  0B8E                     u1771:
  1965  0B8E  2BC6               	goto	l1558
  1966  0B8F                     u1770:
  1967  0B8F                     l1540:
  1968  0B8F  01FD               	clrf	___lwdiv@counter
  1969  0B90  0AFD               	incf	___lwdiv@counter,f
  1970  0B91  2B9D               	goto	l1546
  1971  0B92                     l1542:
  1972  0B92  3001               	movlw	1
  1973  0B93                     u1785:
  1974  0B93  1003               	clrc
  1975  0B94  0DF6               	rlf	___lwdiv@divisor,f
  1976  0B95  0DF7               	rlf	___lwdiv@divisor+1,f
  1977  0B96  3EFF               	addlw	-1
  1978  0B97  1D03               	skipz
  1979  0B98  2B93               	goto	u1785
  1980  0B99                     l1544:
  1981  0B99  3001               	movlw	1
  1982  0B9A  00FA               	movwf	??___lwdiv
  1983  0B9B  087A               	movf	??___lwdiv,w
  1984  0B9C  07FD               	addwf	___lwdiv@counter,f
  1985  0B9D                     l1546:
  1986  0B9D  1FF7               	btfss	___lwdiv@divisor+1,7
  1987  0B9E  2BA0               	goto	u1791
  1988  0B9F  2BA1               	goto	u1790
  1989  0BA0                     u1791:
  1990  0BA0  2B92               	goto	l1542
  1991  0BA1                     u1790:
  1992  0BA1                     l1548:
  1993  0BA1  3001               	movlw	1
  1994  0BA2                     u1805:
  1995  0BA2  1003               	clrc
  1996  0BA3  0DFB               	rlf	___lwdiv@quotient,f
  1997  0BA4  0DFC               	rlf	___lwdiv@quotient+1,f
  1998  0BA5  3EFF               	addlw	-1
  1999  0BA6  1D03               	skipz
  2000  0BA7  2BA2               	goto	u1805
  2001  0BA8  0877               	movf	___lwdiv@divisor+1,w
  2002  0BA9  0279               	subwf	___lwdiv@dividend+1,w
  2003  0BAA  1D03               	skipz
  2004  0BAB  2BAE               	goto	u1815
  2005  0BAC  0876               	movf	___lwdiv@divisor,w
  2006  0BAD  0278               	subwf	___lwdiv@dividend,w
  2007  0BAE                     u1815:
  2008  0BAE  1C03               	skipc
  2009  0BAF  2BB1               	goto	u1811
  2010  0BB0  2BB2               	goto	u1810
  2011  0BB1                     u1811:
  2012  0BB1  2BB9               	goto	l1554
  2013  0BB2                     u1810:
  2014  0BB2                     l1550:
  2015  0BB2  0876               	movf	___lwdiv@divisor,w
  2016  0BB3  02F8               	subwf	___lwdiv@dividend,f
  2017  0BB4  0877               	movf	___lwdiv@divisor+1,w
  2018  0BB5  1C03               	skipc
  2019  0BB6  03F9               	decf	___lwdiv@dividend+1,f
  2020  0BB7  02F9               	subwf	___lwdiv@dividend+1,f
  2021  0BB8                     l1552:
  2022  0BB8  147B               	bsf	___lwdiv@quotient,0
  2023  0BB9                     l1554:
  2024  0BB9  3001               	movlw	1
  2025  0BBA                     u1825:
  2026  0BBA  1003               	clrc
  2027  0BBB  0CF7               	rrf	___lwdiv@divisor+1,f
  2028  0BBC  0CF6               	rrf	___lwdiv@divisor,f
  2029  0BBD  3EFF               	addlw	-1
  2030  0BBE  1D03               	skipz
  2031  0BBF  2BBA               	goto	u1825
  2032  0BC0                     l1556:
  2033  0BC0  3001               	movlw	1
  2034  0BC1  02FD               	subwf	___lwdiv@counter,f
  2035  0BC2  1D03               	btfss	3,2
  2036  0BC3  2BC5               	goto	u1831
  2037  0BC4  2BC6               	goto	u1830
  2038  0BC5                     u1831:
  2039  0BC5  2BA1               	goto	l1548
  2040  0BC6                     u1830:
  2041  0BC6                     l1558:
  2042  0BC6  087C               	movf	___lwdiv@quotient+1,w
  2043  0BC7  00F7               	movwf	?___lwdiv+1
  2044  0BC8  087B               	movf	___lwdiv@quotient,w
  2045  0BC9  00F6               	movwf	?___lwdiv
  2046  0BCA                     l522:
  2047  0BCA  0008               	return
  2048  0BCB                     __end_of___lwdiv:
  2049                           
  2050                           	psect	text6
  2051  0A96                     __ptext6:	
  2052 ;; *************** function ___wmul *****************
  2053 ;; Defined at:
  2054 ;;		line 15 in file "C:\Program Files\Microchip\xc8\v2.32\pic\sources\c90\common\Umul16.c"
  2055 ;; Parameters:    Size  Location     Type
  2056 ;;  multiplier      2    5[COMMON] unsigned int 
  2057 ;;  multiplicand    2    7[COMMON] unsigned int 
  2058 ;; Auto vars:     Size  Location     Type
  2059 ;;  product         2    9[COMMON] unsigned int 
  2060 ;; Return value:  Size  Location     Type
  2061 ;;                  2    5[COMMON] unsigned int 
  2062 ;; Registers used:
  2063 ;;		wreg, status,2, status,0
  2064 ;; Tracked objects:
  2065 ;;		On entry : 0/0
  2066 ;;		On exit  : 0/0
  2067 ;;		Unchanged: 0/0
  2068 ;; Data sizes:     COMMON   BANK0   BANK1   BANK3   BANK2
  2069 ;;      Params:         4       0       0       0       0
  2070 ;;      Locals:         2       0       0       0       0
  2071 ;;      Temps:          0       0       0       0       0
  2072 ;;      Totals:         6       0       0       0       0
  2073 ;;Total ram usage:        6 bytes
  2074 ;; Hardware stack levels used: 1
  2075 ;; This function calls:
  2076 ;;		Nothing
  2077 ;; This function is called by:
  2078 ;;		_main
  2079 ;; This function uses a non-reentrant model
  2080 ;;
  2081                           
  2082                           
  2083                           ;psect for function ___wmul
  2084  0A96                     ___wmul:
  2085  0A96                     l2038:	
  2086                           ;incstack = 0
  2087                           ; Regs used in ___wmul: [wreg+status,2+status,0]
  2088                           
  2089  0A96  01F9               	clrf	___wmul@product
  2090  0A97  01FA               	clrf	___wmul@product+1
  2091  0A98                     l2040:
  2092  0A98  1C75               	btfss	___wmul@multiplier,0
  2093  0A99  2A9B               	goto	u2911
  2094  0A9A  2A9C               	goto	u2910
  2095  0A9B                     u2911:
  2096  0A9B  2AA2               	goto	l250
  2097  0A9C                     u2910:
  2098  0A9C                     l2042:
  2099  0A9C  0877               	movf	___wmul@multiplicand,w
  2100  0A9D  07F9               	addwf	___wmul@product,f
  2101  0A9E  1803               	skipnc
  2102  0A9F  0AFA               	incf	___wmul@product+1,f
  2103  0AA0  0878               	movf	___wmul@multiplicand+1,w
  2104  0AA1  07FA               	addwf	___wmul@product+1,f
  2105  0AA2                     l250:
  2106  0AA2  3001               	movlw	1
  2107  0AA3                     u2925:
  2108  0AA3  1003               	clrc
  2109  0AA4  0DF7               	rlf	___wmul@multiplicand,f
  2110  0AA5  0DF8               	rlf	___wmul@multiplicand+1,f
  2111  0AA6  3EFF               	addlw	-1
  2112  0AA7  1D03               	skipz
  2113  0AA8  2AA3               	goto	u2925
  2114  0AA9                     l2044:
  2115  0AA9  3001               	movlw	1
  2116  0AAA                     u2935:
  2117  0AAA  1003               	clrc
  2118  0AAB  0CF6               	rrf	___wmul@multiplier+1,f
  2119  0AAC  0CF5               	rrf	___wmul@multiplier,f
  2120  0AAD  3EFF               	addlw	-1
  2121  0AAE  1D03               	skipz
  2122  0AAF  2AAA               	goto	u2935
  2123  0AB0                     l2046:
  2124  0AB0  0875               	movf	___wmul@multiplier,w
  2125  0AB1  0476               	iorwf	___wmul@multiplier+1,w
  2126  0AB2  1D03               	btfss	3,2
  2127  0AB3  2AB5               	goto	u2941
  2128  0AB4  2AB6               	goto	u2940
  2129  0AB5                     u2941:
  2130  0AB5  2A98               	goto	l2040
  2131  0AB6                     u2940:
  2132  0AB6                     l2048:
  2133  0AB6  087A               	movf	___wmul@product+1,w
  2134  0AB7  00F6               	movwf	?___wmul+1
  2135  0AB8  0879               	movf	___wmul@product,w
  2136  0AB9  00F5               	movwf	?___wmul
  2137  0ABA                     l252:
  2138  0ABA  0008               	return
  2139  0ABB                     __end_of___wmul:
  2140                           
  2141                           	psect	text7
  2142  0D04                     __ptext7:	
  2143 ;; *************** function ___flge *****************
  2144 ;; Defined at:
  2145 ;;		line 4 in file "C:\Program Files\Microchip\xc8\v2.32\pic\sources\c90\common\flge.c"
  2146 ;; Parameters:    Size  Location     Type
  2147 ;;  ff1             4   20[BANK0 ] unsigned int 
  2148 ;;  ff2             4   24[BANK0 ] unsigned int 
  2149 ;; Auto vars:     Size  Location     Type
  2150 ;;		None
  2151 ;; Return value:  Size  Location     Type
  2152 ;;		None               void
  2153 ;; Registers used:
  2154 ;;		wreg, status,2, status,0
  2155 ;; Tracked objects:
  2156 ;;		On entry : 0/0
  2157 ;;		On exit  : 0/0
  2158 ;;		Unchanged: 0/0
  2159 ;; Data sizes:     COMMON   BANK0   BANK1   BANK3   BANK2
  2160 ;;      Params:         0       8       0       0       0
  2161 ;;      Locals:         0       0       0       0       0
  2162 ;;      Temps:          0       4       0       0       0
  2163 ;;      Totals:         0      12       0       0       0
  2164 ;;Total ram usage:       12 bytes
  2165 ;; Hardware stack levels used: 1
  2166 ;; This function calls:
  2167 ;;		Nothing
  2168 ;; This function is called by:
  2169 ;;		_main
  2170 ;; This function uses a non-reentrant model
  2171 ;;
  2172                           
  2173                           
  2174                           ;psect for function ___flge
  2175  0D04                     ___flge:
  2176  0D04                     l2052:	
  2177                           ;incstack = 0
  2178                           ; Regs used in ___flge: [wreg+status,2+status,0]
  2179                           
  2180  0D04  3000               	movlw	0
  2181  0D05  1283               	bcf	3,5	;RP0=0, select bank0
  2182  0D06  1303               	bcf	3,6	;RP1=0, select bank0
  2183  0D07  0534               	andwf	___flge@ff1,w
  2184  0D08  00BC               	movwf	??___flge
  2185  0D09  3000               	movlw	0
  2186  0D0A  0535               	andwf	___flge@ff1+1,w
  2187  0D0B  00BD               	movwf	??___flge+1
  2188  0D0C  3080               	movlw	128
  2189  0D0D  0536               	andwf	___flge@ff1+2,w
  2190  0D0E  00BE               	movwf	??___flge+2
  2191  0D0F  307F               	movlw	127
  2192  0D10  0537               	andwf	___flge@ff1+3,w
  2193  0D11  00BF               	movwf	??___flge+3
  2194  0D12  083F               	movf	??___flge+3,w
  2195  0D13  043E               	iorwf	??___flge+2,w
  2196  0D14  043D               	iorwf	??___flge+1,w
  2197  0D15  043C               	iorwf	??___flge,w
  2198  0D16  1D03               	skipz
  2199  0D17  2D19               	goto	u2951
  2200  0D18  2D1A               	goto	u2950
  2201  0D19                     u2951:
  2202  0D19  2D22               	goto	l424
  2203  0D1A                     u2950:
  2204  0D1A                     l2054:
  2205  0D1A  3000               	movlw	0
  2206  0D1B  00B7               	movwf	___flge@ff1+3
  2207  0D1C  3000               	movlw	0
  2208  0D1D  00B6               	movwf	___flge@ff1+2
  2209  0D1E  3000               	movlw	0
  2210  0D1F  00B5               	movwf	___flge@ff1+1
  2211  0D20  3000               	movlw	0
  2212  0D21  00B4               	movwf	___flge@ff1
  2213  0D22                     l424:
  2214  0D22  3000               	movlw	0
  2215  0D23  0538               	andwf	___flge@ff2,w
  2216  0D24  00BC               	movwf	??___flge
  2217  0D25  3000               	movlw	0
  2218  0D26  0539               	andwf	___flge@ff2+1,w
  2219  0D27  00BD               	movwf	??___flge+1
  2220  0D28  3080               	movlw	128
  2221  0D29  053A               	andwf	___flge@ff2+2,w
  2222  0D2A  00BE               	movwf	??___flge+2
  2223  0D2B  307F               	movlw	127
  2224  0D2C  053B               	andwf	___flge@ff2+3,w
  2225  0D2D  00BF               	movwf	??___flge+3
  2226  0D2E  083F               	movf	??___flge+3,w
  2227  0D2F  043E               	iorwf	??___flge+2,w
  2228  0D30  043D               	iorwf	??___flge+1,w
  2229  0D31  043C               	iorwf	??___flge,w
  2230  0D32  1D03               	skipz
  2231  0D33  2D35               	goto	u2961
  2232  0D34  2D36               	goto	u2960
  2233  0D35                     u2961:
  2234  0D35  2D3E               	goto	l2058
  2235  0D36                     u2960:
  2236  0D36                     l2056:
  2237  0D36  3000               	movlw	0
  2238  0D37  00BB               	movwf	___flge@ff2+3
  2239  0D38  3000               	movlw	0
  2240  0D39  00BA               	movwf	___flge@ff2+2
  2241  0D3A  3000               	movlw	0
  2242  0D3B  00B9               	movwf	___flge@ff2+1
  2243  0D3C  3000               	movlw	0
  2244  0D3D  00B8               	movwf	___flge@ff2
  2245  0D3E                     l2058:
  2246  0D3E  1FB7               	btfss	___flge@ff1+3,7
  2247  0D3F  2D41               	goto	u2971
  2248  0D40  2D42               	goto	u2970
  2249  0D41                     u2971:
  2250  0D41  2D66               	goto	l2062
  2251  0D42                     u2970:
  2252  0D42                     l2060:
  2253  0D42  3000               	movlw	0
  2254  0D43  00BC               	movwf	??___flge
  2255  0D44  3000               	movlw	0
  2256  0D45  00BD               	movwf	??___flge+1
  2257  0D46  3000               	movlw	0
  2258  0D47  00BE               	movwf	??___flge+2
  2259  0D48  3080               	movlw	128
  2260  0D49  00BF               	movwf	??___flge+3
  2261  0D4A  0834               	movf	___flge@ff1,w
  2262  0D4B  02BC               	subwf	??___flge,f
  2263  0D4C  0835               	movf	___flge@ff1+1,w
  2264  0D4D  1C03               	skipc
  2265  0D4E  0F35               	incfsz	___flge@ff1+1,w
  2266  0D4F  2D51               	goto	u2981
  2267  0D50  2D52               	goto	u2982
  2268  0D51                     u2981:
  2269  0D51  02BD               	subwf	??___flge+1,f
  2270  0D52                     u2982:
  2271  0D52  0836               	movf	___flge@ff1+2,w
  2272  0D53  1C03               	skipc
  2273  0D54  0F36               	incfsz	___flge@ff1+2,w
  2274  0D55  2D57               	goto	u2983
  2275  0D56  2D58               	goto	u2984
  2276  0D57                     u2983:
  2277  0D57  02BE               	subwf	??___flge+2,f
  2278  0D58                     u2984:
  2279  0D58  0837               	movf	___flge@ff1+3,w
  2280  0D59  1C03               	skipc
  2281  0D5A  0F37               	incfsz	___flge@ff1+3,w
  2282  0D5B  2D5D               	goto	u2985
  2283  0D5C  2D5E               	goto	u2986
  2284  0D5D                     u2985:
  2285  0D5D  02BF               	subwf	??___flge+3,f
  2286  0D5E                     u2986:
  2287  0D5E  083F               	movf	??___flge+3,w
  2288  0D5F  00B7               	movwf	___flge@ff1+3
  2289  0D60  083E               	movf	??___flge+2,w
  2290  0D61  00B6               	movwf	___flge@ff1+2
  2291  0D62  083D               	movf	??___flge+1,w
  2292  0D63  00B5               	movwf	___flge@ff1+1
  2293  0D64  083C               	movf	??___flge,w
  2294  0D65  00B4               	movwf	___flge@ff1
  2295  0D66                     l2062:
  2296  0D66  1FBB               	btfss	___flge@ff2+3,7
  2297  0D67  2D69               	goto	u2991
  2298  0D68  2D6A               	goto	u2990
  2299  0D69                     u2991:
  2300  0D69  2D8E               	goto	l427
  2301  0D6A                     u2990:
  2302  0D6A                     l2064:
  2303  0D6A  3000               	movlw	0
  2304  0D6B  00BC               	movwf	??___flge
  2305  0D6C  3000               	movlw	0
  2306  0D6D  00BD               	movwf	??___flge+1
  2307  0D6E  3000               	movlw	0
  2308  0D6F  00BE               	movwf	??___flge+2
  2309  0D70  3080               	movlw	128
  2310  0D71  00BF               	movwf	??___flge+3
  2311  0D72  0838               	movf	___flge@ff2,w
  2312  0D73  02BC               	subwf	??___flge,f
  2313  0D74  0839               	movf	___flge@ff2+1,w
  2314  0D75  1C03               	skipc
  2315  0D76  0F39               	incfsz	___flge@ff2+1,w
  2316  0D77  2D79               	goto	u3001
  2317  0D78  2D7A               	goto	u3002
  2318  0D79                     u3001:
  2319  0D79  02BD               	subwf	??___flge+1,f
  2320  0D7A                     u3002:
  2321  0D7A  083A               	movf	___flge@ff2+2,w
  2322  0D7B  1C03               	skipc
  2323  0D7C  0F3A               	incfsz	___flge@ff2+2,w
  2324  0D7D  2D7F               	goto	u3003
  2325  0D7E  2D80               	goto	u3004
  2326  0D7F                     u3003:
  2327  0D7F  02BE               	subwf	??___flge+2,f
  2328  0D80                     u3004:
  2329  0D80  083B               	movf	___flge@ff2+3,w
  2330  0D81  1C03               	skipc
  2331  0D82  0F3B               	incfsz	___flge@ff2+3,w
  2332  0D83  2D85               	goto	u3005
  2333  0D84  2D86               	goto	u3006
  2334  0D85                     u3005:
  2335  0D85  02BF               	subwf	??___flge+3,f
  2336  0D86                     u3006:
  2337  0D86  083F               	movf	??___flge+3,w
  2338  0D87  00BB               	movwf	___flge@ff2+3
  2339  0D88  083E               	movf	??___flge+2,w
  2340  0D89  00BA               	movwf	___flge@ff2+2
  2341  0D8A  083D               	movf	??___flge+1,w
  2342  0D8B  00B9               	movwf	___flge@ff2+1
  2343  0D8C  083C               	movf	??___flge,w
  2344  0D8D  00B8               	movwf	___flge@ff2
  2345  0D8E                     l427:
  2346  0D8E  3080               	movlw	128
  2347  0D8F  06B7               	xorwf	___flge@ff1+3,f
  2348  0D90  3080               	movlw	128
  2349  0D91  06BB               	xorwf	___flge@ff2+3,f
  2350  0D92  083B               	movf	___flge@ff2+3,w
  2351  0D93  0237               	subwf	___flge@ff1+3,w
  2352  0D94  1D03               	skipz
  2353  0D95  2DA0               	goto	u3015
  2354  0D96  083A               	movf	___flge@ff2+2,w
  2355  0D97  0236               	subwf	___flge@ff1+2,w
  2356  0D98  1D03               	skipz
  2357  0D99  2DA0               	goto	u3015
  2358  0D9A  0839               	movf	___flge@ff2+1,w
  2359  0D9B  0235               	subwf	___flge@ff1+1,w
  2360  0D9C  1D03               	skipz
  2361  0D9D  2DA0               	goto	u3015
  2362  0D9E  0838               	movf	___flge@ff2,w
  2363  0D9F  0234               	subwf	___flge@ff1,w
  2364  0DA0                     u3015:
  2365  0DA0  1803               	skipnc
  2366  0DA1  2DA3               	goto	u3011
  2367  0DA2  2DA4               	goto	u3010
  2368  0DA3                     u3011:
  2369  0DA3  2DA6               	goto	l2068
  2370  0DA4                     u3010:
  2371  0DA4                     l2066:
  2372  0DA4  1003               	clrc
  2373  0DA5  2DA7               	goto	l428
  2374  0DA6                     l2068:
  2375  0DA6  1403               	setc
  2376  0DA7                     l428:
  2377  0DA7  0008               	return
  2378  0DA8                     __end_of___flge:
  2379                           
  2380                           	psect	text8
  2381  0005                     __ptext8:	
  2382 ;; *************** function _PWM2_Start *****************
  2383 ;; Defined at:
  2384 ;;		line 59 in file "C:/Users/leoba/Downloads/biblioteca/PWM.c"
  2385 ;; Parameters:    Size  Location     Type
  2386 ;;		None
  2387 ;; Auto vars:     Size  Location     Type
  2388 ;;		None
  2389 ;; Return value:  Size  Location     Type
  2390 ;;                  1    wreg      void 
  2391 ;; Registers used:
  2392 ;;		None
  2393 ;; Tracked objects:
  2394 ;;		On entry : 0/0
  2395 ;;		On exit  : 0/0
  2396 ;;		Unchanged: 0/0
  2397 ;; Data sizes:     COMMON   BANK0   BANK1   BANK3   BANK2
  2398 ;;      Params:         0       0       0       0       0
  2399 ;;      Locals:         0       0       0       0       0
  2400 ;;      Temps:          0       0       0       0       0
  2401 ;;      Totals:         0       0       0       0       0
  2402 ;;Total ram usage:        0 bytes
  2403 ;; Hardware stack levels used: 1
  2404 ;; This function calls:
  2405 ;;		Nothing
  2406 ;; This function is called by:
  2407 ;;		_main
  2408 ;; This function uses a non-reentrant model
  2409 ;;
  2410                           
  2411                           
  2412                           ;psect for function _PWM2_Start
  2413  0005                     _PWM2_Start:
  2414  0005                     l1996:	
  2415                           ;incstack = 0
  2416                           ; Regs used in _PWM2_Start: []
  2417                           
  2418                           
  2419                           ;C:/Users/leoba/Downloads/biblioteca/PWM.c: 61:   CCP2M3 = 1;
  2420  0005  1283               	bcf	3,5	;RP0=0, select bank0
  2421  0006  1303               	bcf	3,6	;RP1=0, select bank0
  2422  0007  159D               	bsf	29,3	;volatile
  2423                           
  2424                           ;C:/Users/leoba/Downloads/biblioteca/PWM.c: 62:   CCP2M2 = 1;
  2425  0008  151D               	bsf	29,2	;volatile
  2426                           
  2427                           ;C:/Users/leoba/Downloads/biblioteca/PWM.c: 67:     T2CKPS0 = 1;
  2428  0009  1412               	bsf	18,0	;volatile
  2429                           
  2430                           ;C:/Users/leoba/Downloads/biblioteca/PWM.c: 68:     T2CKPS1 = 0;
  2431  000A  1092               	bcf	18,1	;volatile
  2432                           
  2433                           ;C:/Users/leoba/Downloads/biblioteca/PWM.c: 73:     TMR2ON = 1;
  2434  000B  1512               	bsf	18,2	;volatile
  2435                           
  2436                           ;C:/Users/leoba/Downloads/biblioteca/PWM.c: 74:     TRISC1 = 0;
  2437  000C  1683               	bsf	3,5	;RP0=1, select bank1
  2438  000D  1303               	bcf	3,6	;RP1=0, select bank1
  2439  000E  1087               	bcf	7,1	;volatile
  2440  000F                     l136:
  2441  000F  0008               	return
  2442  0010                     __end_of_PWM2_Start:
  2443                           
  2444                           	psect	text9
  2445  0F32                     __ptext9:	
  2446 ;; *************** function _PWM2_Duty *****************
  2447 ;; Defined at:
  2448 ;;		line 29 in file "C:/Users/leoba/Downloads/biblioteca/PWM.c"
  2449 ;; Parameters:    Size  Location     Type
  2450 ;;  duty            2    5[BANK1 ] unsigned int 
  2451 ;;  freq            2    7[BANK1 ] unsigned int 
  2452 ;; Auto vars:     Size  Location     Type
  2453 ;;		None
  2454 ;; Return value:  Size  Location     Type
  2455 ;;                  1    wreg      void 
  2456 ;; Registers used:
  2457 ;;		wreg, status,2, status,0, btemp+1, pclath, cstack
  2458 ;; Tracked objects:
  2459 ;;		On entry : 0/0
  2460 ;;		On exit  : 0/0
  2461 ;;		Unchanged: 0/0
  2462 ;; Data sizes:     COMMON   BANK0   BANK1   BANK3   BANK2
  2463 ;;      Params:         0       0       4       0       0
  2464 ;;      Locals:         0       0       0       0       0
  2465 ;;      Temps:          0       2       0       0       0
  2466 ;;      Totals:         0       2       4       0       0
  2467 ;;Total ram usage:        6 bytes
  2468 ;; Hardware stack levels used: 1
  2469 ;; Hardware stack levels required when called: 2
  2470 ;; This function calls:
  2471 ;;		_PWM_Init
  2472 ;;		___aldiv
  2473 ;;		___fldiv
  2474 ;;		___flmul
  2475 ;;		___fltol
  2476 ;;		___xxtofl
  2477 ;; This function is called by:
  2478 ;;		_main
  2479 ;; This function uses a non-reentrant model
  2480 ;;
  2481                           
  2482                           
  2483                           ;psect for function _PWM2_Duty
  2484  0F32                     _PWM2_Duty:
  2485  0F32                     l2026:	
  2486                           ;incstack = 0
  2487                           ; Regs used in _PWM2_Duty: [wreg+status,2+status,0+btemp+1+pclath+cstack]
  2488                           
  2489                           
  2490                           ;C:/Users/leoba/Downloads/biblioteca/PWM.c: 29: void PWM2_Duty(unsigned int duty, unsign
      +                          ed int freq);C:/Users/leoba/Downloads/biblioteca/PWM.c: 30: {;C:/Users/leoba/Downloads/b
      +                          iblioteca/PWM.c: 31:   PWM_Init(freq);
  2491  0F32  1683               	bsf	3,5	;RP0=1, select bank1
  2492  0F33  1303               	bcf	3,6	;RP1=0, select bank1
  2493  0F34  0827               	movf	PWM2_Duty@freq^(0+128),w
  2494  0F35  1283               	bcf	3,5	;RP0=0, select bank0
  2495  0F36  1303               	bcf	3,6	;RP1=0, select bank0
  2496  0F37  00A6               	movwf	PWM_Init@freq
  2497  0F38  1683               	bsf	3,5	;RP0=1, select bank1
  2498  0F39  1303               	bcf	3,6	;RP1=0, select bank1
  2499  0F3A  0828               	movf	(PWM2_Duty@freq+1)^(0+128),w
  2500  0F3B  1283               	bcf	3,5	;RP0=0, select bank0
  2501  0F3C  1303               	bcf	3,6	;RP1=0, select bank0
  2502  0F3D  00A7               	movwf	PWM_Init@freq+1
  2503  0F3E  01A8               	clrf	PWM_Init@freq+2
  2504  0F3F  01A9               	clrf	PWM_Init@freq+3
  2505  0F40  120A  158A  2316  120A  158A  	fcall	_PWM_Init
  2506  0F45                     l2028:
  2507                           
  2508                           ;C:/Users/leoba/Downloads/biblioteca/PWM.c: 32:   if(duty<1024)
  2509  0F45  3004               	movlw	4
  2510  0F46  1683               	bsf	3,5	;RP0=1, select bank1
  2511  0F47  1303               	bcf	3,6	;RP1=0, select bank1
  2512  0F48  0226               	subwf	(PWM2_Duty@duty+1)^(0+128),w
  2513  0F49  3000               	movlw	0
  2514  0F4A  1903               	skipnz
  2515  0F4B  0225               	subwf	PWM2_Duty@duty^(0+128),w
  2516  0F4C  1803               	skipnc
  2517  0F4D  2F4F               	goto	u2871
  2518  0F4E  2F50               	goto	u2870
  2519  0F4F                     u2871:
  2520  0F4F  2FFF               	goto	l130
  2521  0F50                     u2870:
  2522  0F50                     l2030:
  2523                           
  2524                           ;C:/Users/leoba/Downloads/biblioteca/PWM.c: 33:   {;C:/Users/leoba/Downloads/biblioteca/
      +                          PWM.c: 34:     duty = ((float)duty/1023.0)*(4000000/(freq*4));
  2525  0F50  0825               	movf	PWM2_Duty@duty^(0+128),w
  2526  0F51  1283               	bcf	3,5	;RP0=0, select bank0
  2527  0F52  1303               	bcf	3,6	;RP1=0, select bank0
  2528  0F53  00A6               	movwf	___xxtofl@val
  2529  0F54  1683               	bsf	3,5	;RP0=1, select bank1
  2530  0F55  1303               	bcf	3,6	;RP1=0, select bank1
  2531  0F56  0826               	movf	(PWM2_Duty@duty+1)^(0+128),w
  2532  0F57  1283               	bcf	3,5	;RP0=0, select bank0
  2533  0F58  1303               	bcf	3,6	;RP1=0, select bank0
  2534  0F59  00A7               	movwf	___xxtofl@val+1
  2535  0F5A  01A8               	clrf	___xxtofl@val+2
  2536  0F5B  01A9               	clrf	___xxtofl@val+3
  2537  0F5C  3000               	movlw	0
  2538  0F5D  120A  158A  25A8  120A  158A  	fcall	___xxtofl
  2539  0F62  1283               	bcf	3,5	;RP0=0, select bank0
  2540  0F63  1303               	bcf	3,6	;RP1=0, select bank0
  2541  0F64  0829               	movf	?___xxtofl+3,w
  2542  0F65  00BB               	movwf	___fldiv@b+3
  2543  0F66  0828               	movf	?___xxtofl+2,w
  2544  0F67  00BA               	movwf	___fldiv@b+2
  2545  0F68  0827               	movf	?___xxtofl+1,w
  2546  0F69  00B9               	movwf	___fldiv@b+1
  2547  0F6A  0826               	movf	?___xxtofl,w
  2548  0F6B  00B8               	movwf	___fldiv@b
  2549  0F6C  3044               	movlw	68
  2550  0F6D  00B7               	movwf	___fldiv@a+3
  2551  0F6E  307F               	movlw	127
  2552  0F6F  00B6               	movwf	___fldiv@a+2
  2553  0F70  30C0               	movlw	192
  2554  0F71  00B5               	movwf	___fldiv@a+1
  2555  0F72  3000               	movlw	0
  2556  0F73  00B4               	movwf	___fldiv@a
  2557  0F74  120A  118A  22B4  120A  158A  	fcall	___fldiv
  2558  0F79  1283               	bcf	3,5	;RP0=0, select bank0
  2559  0F7A  1303               	bcf	3,6	;RP1=0, select bank0
  2560  0F7B  0837               	movf	?___fldiv+3,w
  2561  0F7C  00D5               	movwf	___flmul@a+3
  2562  0F7D  0836               	movf	?___fldiv+2,w
  2563  0F7E  00D4               	movwf	___flmul@a+2
  2564  0F7F  0835               	movf	?___fldiv+1,w
  2565  0F80  00D3               	movwf	___flmul@a+1
  2566  0F81  0834               	movf	?___fldiv,w
  2567  0F82  00D2               	movwf	___flmul@a
  2568  0F83  3000               	movlw	0
  2569  0F84  00F7               	movwf	___aldiv@dividend+3
  2570  0F85  303D               	movlw	61
  2571  0F86  00F6               	movwf	___aldiv@dividend+2
  2572  0F87  3009               	movlw	9
  2573  0F88  00F5               	movwf	___aldiv@dividend+1
  2574  0F89  3000               	movlw	0
  2575  0F8A  00F4               	movwf	___aldiv@dividend
  2576  0F8B  1683               	bsf	3,5	;RP0=1, select bank1
  2577  0F8C  1303               	bcf	3,6	;RP1=0, select bank1
  2578  0F8D  0828               	movf	(PWM2_Duty@freq+1)^(0+128),w
  2579  0F8E  1283               	bcf	3,5	;RP0=0, select bank0
  2580  0F8F  1303               	bcf	3,6	;RP1=0, select bank0
  2581  0F90  00EF               	movwf	??_PWM2_Duty+1
  2582  0F91  1683               	bsf	3,5	;RP0=1, select bank1
  2583  0F92  1303               	bcf	3,6	;RP1=0, select bank1
  2584  0F93  0827               	movf	PWM2_Duty@freq^(0+128),w
  2585  0F94  1283               	bcf	3,5	;RP0=0, select bank0
  2586  0F95  1303               	bcf	3,6	;RP1=0, select bank0
  2587  0F96  00EE               	movwf	??_PWM2_Duty
  2588  0F97  1003               	clrc
  2589  0F98  0DEE               	rlf	??_PWM2_Duty,f
  2590  0F99  0DEF               	rlf	??_PWM2_Duty+1,f
  2591  0F9A  1003               	clrc
  2592  0F9B  0DEE               	rlf	??_PWM2_Duty,f
  2593  0F9C  0DEF               	rlf	??_PWM2_Duty+1,f
  2594  0F9D  086E               	movf	??_PWM2_Duty,w
  2595  0F9E  00F0               	movwf	___aldiv@divisor
  2596  0F9F  086F               	movf	??_PWM2_Duty+1,w
  2597  0FA0  00F1               	movwf	___aldiv@divisor+1
  2598  0FA1  01F2               	clrf	___aldiv@divisor+2
  2599  0FA2  01F3               	clrf	___aldiv@divisor+3
  2600  0FA3  120A  158A  2467  120A  158A  	fcall	___aldiv
  2601  0FA8  0873               	movf	?___aldiv+3,w
  2602  0FA9  1283               	bcf	3,5	;RP0=0, select bank0
  2603  0FAA  1303               	bcf	3,6	;RP1=0, select bank0
  2604  0FAB  00A9               	movwf	___xxtofl@val+3
  2605  0FAC  0872               	movf	?___aldiv+2,w
  2606  0FAD  00A8               	movwf	___xxtofl@val+2
  2607  0FAE  0871               	movf	?___aldiv+1,w
  2608  0FAF  00A7               	movwf	___xxtofl@val+1
  2609  0FB0  0870               	movf	?___aldiv,w
  2610  0FB1  00A6               	movwf	___xxtofl@val
  2611  0FB2  3001               	movlw	1
  2612  0FB3  120A  158A  25A8  120A  158A  	fcall	___xxtofl
  2613  0FB8  1283               	bcf	3,5	;RP0=0, select bank0
  2614  0FB9  1303               	bcf	3,6	;RP1=0, select bank0
  2615  0FBA  0829               	movf	?___xxtofl+3,w
  2616  0FBB  00D1               	movwf	___flmul@b+3
  2617  0FBC  0828               	movf	?___xxtofl+2,w
  2618  0FBD  00D0               	movwf	___flmul@b+2
  2619  0FBE  0827               	movf	?___xxtofl+1,w
  2620  0FBF  00CF               	movwf	___flmul@b+1
  2621  0FC0  0826               	movf	?___xxtofl,w
  2622  0FC1  00CE               	movwf	___flmul@b
  2623  0FC2  120A  118A  2491  120A  158A  	fcall	___flmul
  2624  0FC7  1283               	bcf	3,5	;RP0=0, select bank0
  2625  0FC8  1303               	bcf	3,6	;RP1=0, select bank0
  2626  0FC9  0851               	movf	?___flmul+3,w
  2627  0FCA  00EB               	movwf	___fltol@f1+3
  2628  0FCB  0850               	movf	?___flmul+2,w
  2629  0FCC  00EA               	movwf	___fltol@f1+2
  2630  0FCD  084F               	movf	?___flmul+1,w
  2631  0FCE  00E9               	movwf	___fltol@f1+1
  2632  0FCF  084E               	movf	?___flmul,w
  2633  0FD0  00E8               	movwf	___fltol@f1
  2634  0FD1  120A  158A  23CB  120A  158A  	fcall	___fltol
  2635  0FD6  1283               	bcf	3,5	;RP0=0, select bank0
  2636  0FD7  1303               	bcf	3,6	;RP1=0, select bank0
  2637  0FD8  0869               	movf	?___fltol+1,w
  2638  0FD9  1683               	bsf	3,5	;RP0=1, select bank1
  2639  0FDA  1303               	bcf	3,6	;RP1=0, select bank1
  2640  0FDB  00A6               	movwf	(PWM2_Duty@duty+1)^(0+128)
  2641  0FDC  1283               	bcf	3,5	;RP0=0, select bank0
  2642  0FDD  1303               	bcf	3,6	;RP1=0, select bank0
  2643  0FDE  0868               	movf	?___fltol,w
  2644  0FDF  1683               	bsf	3,5	;RP0=1, select bank1
  2645  0FE0  1303               	bcf	3,6	;RP1=0, select bank1
  2646  0FE1  00A5               	movwf	PWM2_Duty@duty^(0+128)
  2647  0FE2                     l2032:
  2648                           
  2649                           ;C:/Users/leoba/Downloads/biblioteca/PWM.c: 35:     CCP2X = duty & 0b00000010;;
  2650  0FE2  1283               	bcf	3,5	;RP0=0, select bank0
  2651  0FE3  1303               	bcf	3,6	;RP1=0, select bank0
  2652  0FE4  129D               	bcf	29,5	;volatile
  2653  0FE5                     l2034:
  2654                           
  2655                           ;C:/Users/leoba/Downloads/biblioteca/PWM.c: 36:     CCP2Y = duty & 0b00000001;;
  2656  0FE5  1683               	bsf	3,5	;RP0=1, select bank1
  2657  0FE6  1303               	bcf	3,6	;RP1=0, select bank1
  2658  0FE7  1825               	btfsc	PWM2_Duty@duty^(0+128),0
  2659  0FE8  2FEA               	goto	u2881
  2660  0FE9  2FEE               	goto	u2880
  2661  0FEA                     u2881:
  2662  0FEA  1283               	bcf	3,5	;RP0=0, select bank0
  2663  0FEB  1303               	bcf	3,6	;RP1=0, select bank0
  2664  0FEC  161D               	bsf	29,4	;volatile
  2665  0FED  2FF1               	goto	u2894
  2666  0FEE                     u2880:
  2667  0FEE  1283               	bcf	3,5	;RP0=0, select bank0
  2668  0FEF  1303               	bcf	3,6	;RP1=0, select bank0
  2669  0FF0  121D               	bcf	29,4	;volatile
  2670  0FF1                     u2894:
  2671  0FF1                     l2036:
  2672                           
  2673                           ;C:/Users/leoba/Downloads/biblioteca/PWM.c: 37:     CCPR2L = (unsigned char)duty>>2;
  2674  0FF1  1683               	bsf	3,5	;RP0=1, select bank1
  2675  0FF2  1303               	bcf	3,6	;RP1=0, select bank1
  2676  0FF3  0825               	movf	PWM2_Duty@duty^(0+128),w
  2677  0FF4  1283               	bcf	3,5	;RP0=0, select bank0
  2678  0FF5  1303               	bcf	3,6	;RP1=0, select bank0
  2679  0FF6  00EE               	movwf	??_PWM2_Duty
  2680  0FF7  3002               	movlw	2
  2681  0FF8                     u2905:
  2682  0FF8  1003               	clrc
  2683  0FF9  0CEE               	rrf	??_PWM2_Duty,f
  2684  0FFA  3EFF               	addlw	-1
  2685  0FFB  1D03               	skipz
  2686  0FFC  2FF8               	goto	u2905
  2687  0FFD  086E               	movf	??_PWM2_Duty,w
  2688  0FFE  009B               	movwf	27	;volatile
  2689  0FFF                     l130:
  2690  0FFF  0008               	return
  2691  1000                     __end_of_PWM2_Duty:
  2692                           
  2693                           	psect	text10
  2694  0A75                     __ptext10:	
  2695 ;; *************** function _PWM1_Start *****************
  2696 ;; Defined at:
  2697 ;;		line 41 in file "C:/Users/leoba/Downloads/biblioteca/PWM.c"
  2698 ;; Parameters:    Size  Location     Type
  2699 ;;		None
  2700 ;; Auto vars:     Size  Location     Type
  2701 ;;		None
  2702 ;; Return value:  Size  Location     Type
  2703 ;;                  1    wreg      void 
  2704 ;; Registers used:
  2705 ;;		None
  2706 ;; Tracked objects:
  2707 ;;		On entry : 0/0
  2708 ;;		On exit  : 0/0
  2709 ;;		Unchanged: 0/0
  2710 ;; Data sizes:     COMMON   BANK0   BANK1   BANK3   BANK2
  2711 ;;      Params:         0       0       0       0       0
  2712 ;;      Locals:         0       0       0       0       0
  2713 ;;      Temps:          0       0       0       0       0
  2714 ;;      Totals:         0       0       0       0       0
  2715 ;;Total ram usage:        0 bytes
  2716 ;; Hardware stack levels used: 1
  2717 ;; This function calls:
  2718 ;;		Nothing
  2719 ;; This function is called by:
  2720 ;;		_main
  2721 ;; This function uses a non-reentrant model
  2722 ;;
  2723                           
  2724                           
  2725                           ;psect for function _PWM1_Start
  2726  0A75                     _PWM1_Start:
  2727  0A75                     l1994:	
  2728                           ;incstack = 0
  2729                           ; Regs used in _PWM1_Start: []
  2730                           
  2731                           
  2732                           ;C:/Users/leoba/Downloads/biblioteca/PWM.c: 43:   CCP1M3 = 1;
  2733  0A75  1283               	bcf	3,5	;RP0=0, select bank0
  2734  0A76  1303               	bcf	3,6	;RP1=0, select bank0
  2735  0A77  1597               	bsf	23,3	;volatile
  2736                           
  2737                           ;C:/Users/leoba/Downloads/biblioteca/PWM.c: 44:   CCP1M2 = 1;
  2738  0A78  1517               	bsf	23,2	;volatile
  2739                           
  2740                           ;C:/Users/leoba/Downloads/biblioteca/PWM.c: 55:   TMR2ON = 1;
  2741  0A79  1512               	bsf	18,2	;volatile
  2742                           
  2743                           ;C:/Users/leoba/Downloads/biblioteca/PWM.c: 56:   TRISC2 = 0;
  2744  0A7A  1683               	bsf	3,5	;RP0=1, select bank1
  2745  0A7B  1303               	bcf	3,6	;RP1=0, select bank1
  2746  0A7C  1107               	bcf	7,2	;volatile
  2747  0A7D                     l133:
  2748  0A7D  0008               	return
  2749  0A7E                     __end_of_PWM1_Start:
  2750                           
  2751                           	psect	text11
  2752  0E64                     __ptext11:	
  2753 ;; *************** function _PWM1_Duty *****************
  2754 ;; Defined at:
  2755 ;;		line 17 in file "C:/Users/leoba/Downloads/biblioteca/PWM.c"
  2756 ;; Parameters:    Size  Location     Type
  2757 ;;  duty            2    5[BANK1 ] unsigned int 
  2758 ;;  freq            2    7[BANK1 ] unsigned int 
  2759 ;; Auto vars:     Size  Location     Type
  2760 ;;		None
  2761 ;; Return value:  Size  Location     Type
  2762 ;;                  1    wreg      void 
  2763 ;; Registers used:
  2764 ;;		wreg, status,2, status,0, btemp+1, pclath, cstack
  2765 ;; Tracked objects:
  2766 ;;		On entry : 0/0
  2767 ;;		On exit  : 0/0
  2768 ;;		Unchanged: 0/0
  2769 ;; Data sizes:     COMMON   BANK0   BANK1   BANK3   BANK2
  2770 ;;      Params:         0       0       4       0       0
  2771 ;;      Locals:         0       0       0       0       0
  2772 ;;      Temps:          0       2       0       0       0
  2773 ;;      Totals:         0       2       4       0       0
  2774 ;;Total ram usage:        6 bytes
  2775 ;; Hardware stack levels used: 1
  2776 ;; Hardware stack levels required when called: 2
  2777 ;; This function calls:
  2778 ;;		_PWM_Init
  2779 ;;		___aldiv
  2780 ;;		___fldiv
  2781 ;;		___flmul
  2782 ;;		___fltol
  2783 ;;		___xxtofl
  2784 ;; This function is called by:
  2785 ;;		_main
  2786 ;; This function uses a non-reentrant model
  2787 ;;
  2788                           
  2789                           
  2790                           ;psect for function _PWM1_Duty
  2791  0E64                     _PWM1_Duty:
  2792  0E64                     l2014:	
  2793                           ;incstack = 0
  2794                           ; Regs used in _PWM1_Duty: [wreg+status,2+status,0+btemp+1+pclath+cstack]
  2795                           
  2796                           
  2797                           ;C:/Users/leoba/Downloads/biblioteca/PWM.c: 17: void PWM1_Duty(unsigned int duty, unsign
      +                          ed int freq);C:/Users/leoba/Downloads/biblioteca/PWM.c: 18: {;C:/Users/leoba/Downloads/b
      +                          iblioteca/PWM.c: 19:   PWM_Init(freq);
  2798  0E64  1683               	bsf	3,5	;RP0=1, select bank1
  2799  0E65  1303               	bcf	3,6	;RP1=0, select bank1
  2800  0E66  0827               	movf	PWM1_Duty@freq^(0+128),w
  2801  0E67  1283               	bcf	3,5	;RP0=0, select bank0
  2802  0E68  1303               	bcf	3,6	;RP1=0, select bank0
  2803  0E69  00A6               	movwf	PWM_Init@freq
  2804  0E6A  1683               	bsf	3,5	;RP0=1, select bank1
  2805  0E6B  1303               	bcf	3,6	;RP1=0, select bank1
  2806  0E6C  0828               	movf	(PWM1_Duty@freq+1)^(0+128),w
  2807  0E6D  1283               	bcf	3,5	;RP0=0, select bank0
  2808  0E6E  1303               	bcf	3,6	;RP1=0, select bank0
  2809  0E6F  00A7               	movwf	PWM_Init@freq+1
  2810  0E70  01A8               	clrf	PWM_Init@freq+2
  2811  0E71  01A9               	clrf	PWM_Init@freq+3
  2812  0E72  120A  158A  2316  120A  158A  	fcall	_PWM_Init
  2813  0E77                     l2016:
  2814                           
  2815                           ;C:/Users/leoba/Downloads/biblioteca/PWM.c: 20:   if(duty<1024)
  2816  0E77  3004               	movlw	4
  2817  0E78  1683               	bsf	3,5	;RP0=1, select bank1
  2818  0E79  1303               	bcf	3,6	;RP1=0, select bank1
  2819  0E7A  0226               	subwf	(PWM1_Duty@duty+1)^(0+128),w
  2820  0E7B  3000               	movlw	0
  2821  0E7C  1903               	skipnz
  2822  0E7D  0225               	subwf	PWM1_Duty@duty^(0+128),w
  2823  0E7E  1803               	skipnc
  2824  0E7F  2E81               	goto	u2831
  2825  0E80  2E82               	goto	u2830
  2826  0E81                     u2831:
  2827  0E81  2F31               	goto	l126
  2828  0E82                     u2830:
  2829  0E82                     l2018:
  2830                           
  2831                           ;C:/Users/leoba/Downloads/biblioteca/PWM.c: 21:   {;C:/Users/leoba/Downloads/biblioteca/
      +                          PWM.c: 22:     duty = ((float)duty/1023.0)*(4000000/(freq*4));
  2832  0E82  0825               	movf	PWM1_Duty@duty^(0+128),w
  2833  0E83  1283               	bcf	3,5	;RP0=0, select bank0
  2834  0E84  1303               	bcf	3,6	;RP1=0, select bank0
  2835  0E85  00A6               	movwf	___xxtofl@val
  2836  0E86  1683               	bsf	3,5	;RP0=1, select bank1
  2837  0E87  1303               	bcf	3,6	;RP1=0, select bank1
  2838  0E88  0826               	movf	(PWM1_Duty@duty+1)^(0+128),w
  2839  0E89  1283               	bcf	3,5	;RP0=0, select bank0
  2840  0E8A  1303               	bcf	3,6	;RP1=0, select bank0
  2841  0E8B  00A7               	movwf	___xxtofl@val+1
  2842  0E8C  01A8               	clrf	___xxtofl@val+2
  2843  0E8D  01A9               	clrf	___xxtofl@val+3
  2844  0E8E  3000               	movlw	0
  2845  0E8F  120A  158A  25A8  120A  158A  	fcall	___xxtofl
  2846  0E94  1283               	bcf	3,5	;RP0=0, select bank0
  2847  0E95  1303               	bcf	3,6	;RP1=0, select bank0
  2848  0E96  0829               	movf	?___xxtofl+3,w
  2849  0E97  00BB               	movwf	___fldiv@b+3
  2850  0E98  0828               	movf	?___xxtofl+2,w
  2851  0E99  00BA               	movwf	___fldiv@b+2
  2852  0E9A  0827               	movf	?___xxtofl+1,w
  2853  0E9B  00B9               	movwf	___fldiv@b+1
  2854  0E9C  0826               	movf	?___xxtofl,w
  2855  0E9D  00B8               	movwf	___fldiv@b
  2856  0E9E  3044               	movlw	68
  2857  0E9F  00B7               	movwf	___fldiv@a+3
  2858  0EA0  307F               	movlw	127
  2859  0EA1  00B6               	movwf	___fldiv@a+2
  2860  0EA2  30C0               	movlw	192
  2861  0EA3  00B5               	movwf	___fldiv@a+1
  2862  0EA4  3000               	movlw	0
  2863  0EA5  00B4               	movwf	___fldiv@a
  2864  0EA6  120A  118A  22B4  120A  158A  	fcall	___fldiv
  2865  0EAB  1283               	bcf	3,5	;RP0=0, select bank0
  2866  0EAC  1303               	bcf	3,6	;RP1=0, select bank0
  2867  0EAD  0837               	movf	?___fldiv+3,w
  2868  0EAE  00D5               	movwf	___flmul@a+3
  2869  0EAF  0836               	movf	?___fldiv+2,w
  2870  0EB0  00D4               	movwf	___flmul@a+2
  2871  0EB1  0835               	movf	?___fldiv+1,w
  2872  0EB2  00D3               	movwf	___flmul@a+1
  2873  0EB3  0834               	movf	?___fldiv,w
  2874  0EB4  00D2               	movwf	___flmul@a
  2875  0EB5  3000               	movlw	0
  2876  0EB6  00F7               	movwf	___aldiv@dividend+3
  2877  0EB7  303D               	movlw	61
  2878  0EB8  00F6               	movwf	___aldiv@dividend+2
  2879  0EB9  3009               	movlw	9
  2880  0EBA  00F5               	movwf	___aldiv@dividend+1
  2881  0EBB  3000               	movlw	0
  2882  0EBC  00F4               	movwf	___aldiv@dividend
  2883  0EBD  1683               	bsf	3,5	;RP0=1, select bank1
  2884  0EBE  1303               	bcf	3,6	;RP1=0, select bank1
  2885  0EBF  0828               	movf	(PWM1_Duty@freq+1)^(0+128),w
  2886  0EC0  1283               	bcf	3,5	;RP0=0, select bank0
  2887  0EC1  1303               	bcf	3,6	;RP1=0, select bank0
  2888  0EC2  00EF               	movwf	??_PWM1_Duty+1
  2889  0EC3  1683               	bsf	3,5	;RP0=1, select bank1
  2890  0EC4  1303               	bcf	3,6	;RP1=0, select bank1
  2891  0EC5  0827               	movf	PWM1_Duty@freq^(0+128),w
  2892  0EC6  1283               	bcf	3,5	;RP0=0, select bank0
  2893  0EC7  1303               	bcf	3,6	;RP1=0, select bank0
  2894  0EC8  00EE               	movwf	??_PWM1_Duty
  2895  0EC9  1003               	clrc
  2896  0ECA  0DEE               	rlf	??_PWM1_Duty,f
  2897  0ECB  0DEF               	rlf	??_PWM1_Duty+1,f
  2898  0ECC  1003               	clrc
  2899  0ECD  0DEE               	rlf	??_PWM1_Duty,f
  2900  0ECE  0DEF               	rlf	??_PWM1_Duty+1,f
  2901  0ECF  086E               	movf	??_PWM1_Duty,w
  2902  0ED0  00F0               	movwf	___aldiv@divisor
  2903  0ED1  086F               	movf	??_PWM1_Duty+1,w
  2904  0ED2  00F1               	movwf	___aldiv@divisor+1
  2905  0ED3  01F2               	clrf	___aldiv@divisor+2
  2906  0ED4  01F3               	clrf	___aldiv@divisor+3
  2907  0ED5  120A  158A  2467  120A  158A  	fcall	___aldiv
  2908  0EDA  0873               	movf	?___aldiv+3,w
  2909  0EDB  1283               	bcf	3,5	;RP0=0, select bank0
  2910  0EDC  1303               	bcf	3,6	;RP1=0, select bank0
  2911  0EDD  00A9               	movwf	___xxtofl@val+3
  2912  0EDE  0872               	movf	?___aldiv+2,w
  2913  0EDF  00A8               	movwf	___xxtofl@val+2
  2914  0EE0  0871               	movf	?___aldiv+1,w
  2915  0EE1  00A7               	movwf	___xxtofl@val+1
  2916  0EE2  0870               	movf	?___aldiv,w
  2917  0EE3  00A6               	movwf	___xxtofl@val
  2918  0EE4  3001               	movlw	1
  2919  0EE5  120A  158A  25A8  120A  158A  	fcall	___xxtofl
  2920  0EEA  1283               	bcf	3,5	;RP0=0, select bank0
  2921  0EEB  1303               	bcf	3,6	;RP1=0, select bank0
  2922  0EEC  0829               	movf	?___xxtofl+3,w
  2923  0EED  00D1               	movwf	___flmul@b+3
  2924  0EEE  0828               	movf	?___xxtofl+2,w
  2925  0EEF  00D0               	movwf	___flmul@b+2
  2926  0EF0  0827               	movf	?___xxtofl+1,w
  2927  0EF1  00CF               	movwf	___flmul@b+1
  2928  0EF2  0826               	movf	?___xxtofl,w
  2929  0EF3  00CE               	movwf	___flmul@b
  2930  0EF4  120A  118A  2491  120A  158A  	fcall	___flmul
  2931  0EF9  1283               	bcf	3,5	;RP0=0, select bank0
  2932  0EFA  1303               	bcf	3,6	;RP1=0, select bank0
  2933  0EFB  0851               	movf	?___flmul+3,w
  2934  0EFC  00EB               	movwf	___fltol@f1+3
  2935  0EFD  0850               	movf	?___flmul+2,w
  2936  0EFE  00EA               	movwf	___fltol@f1+2
  2937  0EFF  084F               	movf	?___flmul+1,w
  2938  0F00  00E9               	movwf	___fltol@f1+1
  2939  0F01  084E               	movf	?___flmul,w
  2940  0F02  00E8               	movwf	___fltol@f1
  2941  0F03  120A  158A  23CB  120A  158A  	fcall	___fltol
  2942  0F08  1283               	bcf	3,5	;RP0=0, select bank0
  2943  0F09  1303               	bcf	3,6	;RP1=0, select bank0
  2944  0F0A  0869               	movf	?___fltol+1,w
  2945  0F0B  1683               	bsf	3,5	;RP0=1, select bank1
  2946  0F0C  1303               	bcf	3,6	;RP1=0, select bank1
  2947  0F0D  00A6               	movwf	(PWM1_Duty@duty+1)^(0+128)
  2948  0F0E  1283               	bcf	3,5	;RP0=0, select bank0
  2949  0F0F  1303               	bcf	3,6	;RP1=0, select bank0
  2950  0F10  0868               	movf	?___fltol,w
  2951  0F11  1683               	bsf	3,5	;RP0=1, select bank1
  2952  0F12  1303               	bcf	3,6	;RP1=0, select bank1
  2953  0F13  00A5               	movwf	PWM1_Duty@duty^(0+128)
  2954  0F14                     l2020:
  2955                           
  2956                           ;C:/Users/leoba/Downloads/biblioteca/PWM.c: 23:     CCP1X = duty & 0b00000010;
  2957  0F14  1283               	bcf	3,5	;RP0=0, select bank0
  2958  0F15  1303               	bcf	3,6	;RP1=0, select bank0
  2959  0F16  1297               	bcf	23,5	;volatile
  2960  0F17                     l2022:
  2961                           
  2962                           ;C:/Users/leoba/Downloads/biblioteca/PWM.c: 24:     CCP1Y = duty & 0b00000001;
  2963  0F17  1683               	bsf	3,5	;RP0=1, select bank1
  2964  0F18  1303               	bcf	3,6	;RP1=0, select bank1
  2965  0F19  1825               	btfsc	PWM1_Duty@duty^(0+128),0
  2966  0F1A  2F1C               	goto	u2841
  2967  0F1B  2F20               	goto	u2840
  2968  0F1C                     u2841:
  2969  0F1C  1283               	bcf	3,5	;RP0=0, select bank0
  2970  0F1D  1303               	bcf	3,6	;RP1=0, select bank0
  2971  0F1E  1617               	bsf	23,4	;volatile
  2972  0F1F  2F23               	goto	u2854
  2973  0F20                     u2840:
  2974  0F20  1283               	bcf	3,5	;RP0=0, select bank0
  2975  0F21  1303               	bcf	3,6	;RP1=0, select bank0
  2976  0F22  1217               	bcf	23,4	;volatile
  2977  0F23                     u2854:
  2978  0F23                     l2024:
  2979                           
  2980                           ;C:/Users/leoba/Downloads/biblioteca/PWM.c: 25:     CCPR1L = (unsigned char)duty>>2;
  2981  0F23  1683               	bsf	3,5	;RP0=1, select bank1
  2982  0F24  1303               	bcf	3,6	;RP1=0, select bank1
  2983  0F25  0825               	movf	PWM1_Duty@duty^(0+128),w
  2984  0F26  1283               	bcf	3,5	;RP0=0, select bank0
  2985  0F27  1303               	bcf	3,6	;RP1=0, select bank0
  2986  0F28  00EE               	movwf	??_PWM1_Duty
  2987  0F29  3002               	movlw	2
  2988  0F2A                     u2865:
  2989  0F2A  1003               	clrc
  2990  0F2B  0CEE               	rrf	??_PWM1_Duty,f
  2991  0F2C  3EFF               	addlw	-1
  2992  0F2D  1D03               	skipz
  2993  0F2E  2F2A               	goto	u2865
  2994  0F2F  086E               	movf	??_PWM1_Duty,w
  2995  0F30  0095               	movwf	21	;volatile
  2996  0F31                     l126:
  2997  0F31  0008               	return
  2998  0F32                     __end_of_PWM1_Duty:
  2999                           
  3000                           	psect	text12
  3001  0DA8                     __ptext12:	
  3002 ;; *************** function ___xxtofl *****************
  3003 ;; Defined at:
  3004 ;;		line 10 in file "C:\Program Files\Microchip\xc8\v2.32\pic\sources\c90\common\xxtofl.c"
  3005 ;; Parameters:    Size  Location     Type
  3006 ;;  sign            1    wreg     unsigned char 
  3007 ;;  val             4    6[BANK0 ] long 
  3008 ;; Auto vars:     Size  Location     Type
  3009 ;;  sign            1   14[BANK0 ] unsigned char 
  3010 ;;  arg             4   16[BANK0 ] unsigned long 
  3011 ;;  exp             1   15[BANK0 ] unsigned char 
  3012 ;; Return value:  Size  Location     Type
  3013 ;;                  4    6[BANK0 ] unsigned char 
  3014 ;; Registers used:
  3015 ;;		wreg, status,2, status,0
  3016 ;; Tracked objects:
  3017 ;;		On entry : 0/0
  3018 ;;		On exit  : 0/0
  3019 ;;		Unchanged: 0/0
  3020 ;; Data sizes:     COMMON   BANK0   BANK1   BANK3   BANK2
  3021 ;;      Params:         0       4       0       0       0
  3022 ;;      Locals:         0       6       0       0       0
  3023 ;;      Temps:          0       4       0       0       0
  3024 ;;      Totals:         0      14       0       0       0
  3025 ;;Total ram usage:       14 bytes
  3026 ;; Hardware stack levels used: 1
  3027 ;; This function calls:
  3028 ;;		Nothing
  3029 ;; This function is called by:
  3030 ;;		_main
  3031 ;;		_PWM1_Duty
  3032 ;;		_PWM2_Duty
  3033 ;; This function uses a non-reentrant model
  3034 ;;
  3035                           
  3036                           
  3037                           ;psect for function ___xxtofl
  3038  0DA8                     ___xxtofl:
  3039                           
  3040                           ;incstack = 0
  3041                           ; Regs used in ___xxtofl: [wreg+status,2+status,0]
  3042                           ;___xxtofl@sign stored from wreg
  3043  0DA8  1283               	bcf	3,5	;RP0=0, select bank0
  3044  0DA9  1303               	bcf	3,6	;RP1=0, select bank0
  3045  0DAA  00AE               	movwf	___xxtofl@sign
  3046  0DAB                     l1866:
  3047  0DAB  082E               	movf	___xxtofl@sign,w
  3048  0DAC  1903               	btfsc	3,2
  3049  0DAD  2DAF               	goto	u2561
  3050  0DAE  2DB0               	goto	u2560
  3051  0DAF                     u2561:
  3052  0DAF  2DC4               	goto	l1872
  3053  0DB0                     u2560:
  3054  0DB0                     l1868:
  3055  0DB0  1FA9               	btfss	___xxtofl@val+3,7
  3056  0DB1  2DB3               	goto	u2571
  3057  0DB2  2DB4               	goto	u2570
  3058  0DB3                     u2571:
  3059  0DB3  2DC4               	goto	l1872
  3060  0DB4                     u2570:
  3061  0DB4                     l1870:
  3062  0DB4  0926               	comf	___xxtofl@val,w
  3063  0DB5  00B0               	movwf	___xxtofl@arg
  3064  0DB6  0927               	comf	___xxtofl@val+1,w
  3065  0DB7  00B1               	movwf	___xxtofl@arg+1
  3066  0DB8  0928               	comf	___xxtofl@val+2,w
  3067  0DB9  00B2               	movwf	___xxtofl@arg+2
  3068  0DBA  0929               	comf	___xxtofl@val+3,w
  3069  0DBB  00B3               	movwf	___xxtofl@arg+3
  3070  0DBC  0AB0               	incf	___xxtofl@arg,f
  3071  0DBD  1903               	skipnz
  3072  0DBE  0AB1               	incf	___xxtofl@arg+1,f
  3073  0DBF  1903               	skipnz
  3074  0DC0  0AB2               	incf	___xxtofl@arg+2,f
  3075  0DC1  1903               	skipnz
  3076  0DC2  0AB3               	incf	___xxtofl@arg+3,f
  3077  0DC3  2DCC               	goto	l683
  3078  0DC4                     l1872:
  3079  0DC4  0829               	movf	___xxtofl@val+3,w
  3080  0DC5  00B3               	movwf	___xxtofl@arg+3
  3081  0DC6  0828               	movf	___xxtofl@val+2,w
  3082  0DC7  00B2               	movwf	___xxtofl@arg+2
  3083  0DC8  0827               	movf	___xxtofl@val+1,w
  3084  0DC9  00B1               	movwf	___xxtofl@arg+1
  3085  0DCA  0826               	movf	___xxtofl@val,w
  3086  0DCB  00B0               	movwf	___xxtofl@arg
  3087  0DCC                     l683:
  3088  0DCC  0829               	movf	___xxtofl@val+3,w
  3089  0DCD  0428               	iorwf	___xxtofl@val+2,w
  3090  0DCE  0427               	iorwf	___xxtofl@val+1,w
  3091  0DCF  0426               	iorwf	___xxtofl@val,w
  3092  0DD0  1D03               	skipz
  3093  0DD1  2DD3               	goto	u2581
  3094  0DD2  2DD4               	goto	u2580
  3095  0DD3                     u2581:
  3096  0DD3  2DDD               	goto	l1878
  3097  0DD4                     u2580:
  3098  0DD4                     l1874:
  3099  0DD4  3000               	movlw	0
  3100  0DD5  00A9               	movwf	?___xxtofl+3
  3101  0DD6  3000               	movlw	0
  3102  0DD7  00A8               	movwf	?___xxtofl+2
  3103  0DD8  3000               	movlw	0
  3104  0DD9  00A7               	movwf	?___xxtofl+1
  3105  0DDA  3000               	movlw	0
  3106  0DDB  00A6               	movwf	?___xxtofl
  3107  0DDC  2E63               	goto	l685
  3108  0DDD                     l1878:
  3109  0DDD  3096               	movlw	150
  3110  0DDE  00AA               	movwf	??___xxtofl
  3111  0DDF  082A               	movf	??___xxtofl,w
  3112  0DE0  00AF               	movwf	___xxtofl@exp
  3113  0DE1  2DEF               	goto	l1882
  3114  0DE2                     l1880:
  3115  0DE2  3001               	movlw	1
  3116  0DE3  00AA               	movwf	??___xxtofl
  3117  0DE4  082A               	movf	??___xxtofl,w
  3118  0DE5  07AF               	addwf	___xxtofl@exp,f
  3119  0DE6  3001               	movlw	1
  3120  0DE7                     u2595:
  3121  0DE7  1003               	clrc
  3122  0DE8  0CB3               	rrf	___xxtofl@arg+3,f
  3123  0DE9  0CB2               	rrf	___xxtofl@arg+2,f
  3124  0DEA  0CB1               	rrf	___xxtofl@arg+1,f
  3125  0DEB  0CB0               	rrf	___xxtofl@arg,f
  3126  0DEC  3EFF               	addlw	-1
  3127  0DED  1D03               	skipz
  3128  0DEE  2DE7               	goto	u2595
  3129  0DEF                     l1882:
  3130  0DEF  30FE               	movlw	254
  3131  0DF0  0533               	andwf	___xxtofl@arg+3,w
  3132  0DF1  1D03               	btfss	3,2
  3133  0DF2  2DF4               	goto	u2601
  3134  0DF3  2DF5               	goto	u2600
  3135  0DF4                     u2601:
  3136  0DF4  2DE2               	goto	l1880
  3137  0DF5                     u2600:
  3138  0DF5  2E11               	goto	l689
  3139  0DF6                     l1884:
  3140  0DF6  3001               	movlw	1
  3141  0DF7  00AA               	movwf	??___xxtofl
  3142  0DF8  082A               	movf	??___xxtofl,w
  3143  0DF9  07AF               	addwf	___xxtofl@exp,f
  3144  0DFA                     l1886:
  3145  0DFA  3001               	movlw	1
  3146  0DFB  07B0               	addwf	___xxtofl@arg,f
  3147  0DFC  3000               	movlw	0
  3148  0DFD  1803               	skipnc
  3149  0DFE  3001               	movlw	1
  3150  0DFF  07B1               	addwf	___xxtofl@arg+1,f
  3151  0E00  3000               	movlw	0
  3152  0E01  1803               	skipnc
  3153  0E02  3001               	movlw	1
  3154  0E03  07B2               	addwf	___xxtofl@arg+2,f
  3155  0E04  3000               	movlw	0
  3156  0E05  1803               	skipnc
  3157  0E06  3001               	movlw	1
  3158  0E07  07B3               	addwf	___xxtofl@arg+3,f
  3159  0E08                     l1888:
  3160  0E08  3001               	movlw	1
  3161  0E09                     u2615:
  3162  0E09  1003               	clrc
  3163  0E0A  0CB3               	rrf	___xxtofl@arg+3,f
  3164  0E0B  0CB2               	rrf	___xxtofl@arg+2,f
  3165  0E0C  0CB1               	rrf	___xxtofl@arg+1,f
  3166  0E0D  0CB0               	rrf	___xxtofl@arg,f
  3167  0E0E  3EFF               	addlw	-1
  3168  0E0F  1D03               	skipz
  3169  0E10  2E09               	goto	u2615
  3170  0E11                     l689:
  3171  0E11  30FF               	movlw	255
  3172  0E12  0533               	andwf	___xxtofl@arg+3,w
  3173  0E13  1D03               	btfss	3,2
  3174  0E14  2E16               	goto	u2621
  3175  0E15  2E17               	goto	u2620
  3176  0E16                     u2621:
  3177  0E16  2DF6               	goto	l1884
  3178  0E17                     u2620:
  3179  0E17  2E23               	goto	l1892
  3180  0E18                     l1890:
  3181  0E18  3001               	movlw	1
  3182  0E19  02AF               	subwf	___xxtofl@exp,f
  3183  0E1A  3001               	movlw	1
  3184  0E1B  00AA               	movwf	??___xxtofl
  3185  0E1C                     u2635:
  3186  0E1C  1003               	clrc
  3187  0E1D  0DB0               	rlf	___xxtofl@arg,f
  3188  0E1E  0DB1               	rlf	___xxtofl@arg+1,f
  3189  0E1F  0DB2               	rlf	___xxtofl@arg+2,f
  3190  0E20  0DB3               	rlf	___xxtofl@arg+3,f
  3191  0E21  0BAA               	decfsz	??___xxtofl,f
  3192  0E22  2E1C               	goto	u2635
  3193  0E23                     l1892:
  3194  0E23  1BB2               	btfsc	___xxtofl@arg+2,7
  3195  0E24  2E26               	goto	u2641
  3196  0E25  2E27               	goto	u2640
  3197  0E26                     u2641:
  3198  0E26  2E2D               	goto	l696
  3199  0E27                     u2640:
  3200  0E27                     l1894:
  3201  0E27  3002               	movlw	2
  3202  0E28  022F               	subwf	___xxtofl@exp,w
  3203  0E29  1803               	skipnc
  3204  0E2A  2E2C               	goto	u2651
  3205  0E2B  2E2D               	goto	u2650
  3206  0E2C                     u2651:
  3207  0E2C  2E18               	goto	l1890
  3208  0E2D                     u2650:
  3209  0E2D                     l696:
  3210  0E2D  182F               	btfsc	___xxtofl@exp,0
  3211  0E2E  2E30               	goto	u2661
  3212  0E2F  2E31               	goto	u2660
  3213  0E30                     u2661:
  3214  0E30  2E39               	goto	l697
  3215  0E31                     u2660:
  3216  0E31                     l1896:
  3217  0E31  30FF               	movlw	255
  3218  0E32  05B0               	andwf	___xxtofl@arg,f
  3219  0E33  30FF               	movlw	255
  3220  0E34  05B1               	andwf	___xxtofl@arg+1,f
  3221  0E35  307F               	movlw	127
  3222  0E36  05B2               	andwf	___xxtofl@arg+2,f
  3223  0E37  30FF               	movlw	255
  3224  0E38  05B3               	andwf	___xxtofl@arg+3,f
  3225  0E39                     l697:
  3226  0E39  1003               	clrc
  3227  0E3A  0CAF               	rrf	___xxtofl@exp,f
  3228  0E3B                     l1898:
  3229  0E3B  082F               	movf	___xxtofl@exp,w
  3230  0E3C  00AA               	movwf	??___xxtofl
  3231  0E3D  01AB               	clrf	??___xxtofl+1
  3232  0E3E  01AC               	clrf	??___xxtofl+2
  3233  0E3F  01AD               	clrf	??___xxtofl+3
  3234  0E40  3018               	movlw	24
  3235  0E41                     u2675:
  3236  0E41  1003               	clrc
  3237  0E42  0DAA               	rlf	??___xxtofl,f
  3238  0E43  0DAB               	rlf	??___xxtofl+1,f
  3239  0E44  0DAC               	rlf	??___xxtofl+2,f
  3240  0E45  0DAD               	rlf	??___xxtofl+3,f
  3241  0E46                     u2670:
  3242  0E46  3EFF               	addlw	-1
  3243  0E47  1D03               	skipz
  3244  0E48  2E41               	goto	u2675
  3245  0E49  082A               	movf	??___xxtofl,w
  3246  0E4A  04B0               	iorwf	___xxtofl@arg,f
  3247  0E4B  082B               	movf	??___xxtofl+1,w
  3248  0E4C  04B1               	iorwf	___xxtofl@arg+1,f
  3249  0E4D  082C               	movf	??___xxtofl+2,w
  3250  0E4E  04B2               	iorwf	___xxtofl@arg+2,f
  3251  0E4F  082D               	movf	??___xxtofl+3,w
  3252  0E50  04B3               	iorwf	___xxtofl@arg+3,f
  3253  0E51                     l1900:
  3254  0E51  082E               	movf	___xxtofl@sign,w
  3255  0E52  1903               	btfsc	3,2
  3256  0E53  2E55               	goto	u2681
  3257  0E54  2E56               	goto	u2680
  3258  0E55                     u2681:
  3259  0E55  2E5B               	goto	l1906
  3260  0E56                     u2680:
  3261  0E56                     l1902:
  3262  0E56  1FA9               	btfss	___xxtofl@val+3,7
  3263  0E57  2E59               	goto	u2691
  3264  0E58  2E5A               	goto	u2690
  3265  0E59                     u2691:
  3266  0E59  2E5B               	goto	l1906
  3267  0E5A                     u2690:
  3268  0E5A                     l1904:
  3269  0E5A  17B3               	bsf	___xxtofl@arg+3,7
  3270  0E5B                     l1906:
  3271  0E5B  0833               	movf	___xxtofl@arg+3,w
  3272  0E5C  00A9               	movwf	?___xxtofl+3
  3273  0E5D  0832               	movf	___xxtofl@arg+2,w
  3274  0E5E  00A8               	movwf	?___xxtofl+2
  3275  0E5F  0831               	movf	___xxtofl@arg+1,w
  3276  0E60  00A7               	movwf	?___xxtofl+1
  3277  0E61  0830               	movf	___xxtofl@arg,w
  3278  0E62  00A6               	movwf	?___xxtofl
  3279  0E63                     l685:
  3280  0E63  0008               	return
  3281  0E64                     __end_of___xxtofl:
  3282                           
  3283                           	psect	text13
  3284  0BCB                     __ptext13:	
  3285 ;; *************** function ___fltol *****************
  3286 ;; Defined at:
  3287 ;;		line 43 in file "C:\Program Files\Microchip\xc8\v2.32\pic\sources\c90\common\fltol.c"
  3288 ;; Parameters:    Size  Location     Type
  3289 ;;  f1              4   72[BANK0 ] unsigned char 
  3290 ;; Auto vars:     Size  Location     Type
  3291 ;;  exp1            1   77[BANK0 ] unsigned char 
  3292 ;;  sign1           1   76[BANK0 ] unsigned char 
  3293 ;; Return value:  Size  Location     Type
  3294 ;;                  4   72[BANK0 ] long 
  3295 ;; Registers used:
  3296 ;;		wreg, status,2, status,0
  3297 ;; Tracked objects:
  3298 ;;		On entry : 0/0
  3299 ;;		On exit  : 0/0
  3300 ;;		Unchanged: 0/0
  3301 ;; Data sizes:     COMMON   BANK0   BANK1   BANK3   BANK2
  3302 ;;      Params:         0       4       0       0       0
  3303 ;;      Locals:         0       2       0       0       0
  3304 ;;      Temps:          0       0       5       0       0
  3305 ;;      Totals:         0       6       5       0       0
  3306 ;;Total ram usage:       11 bytes
  3307 ;; Hardware stack levels used: 1
  3308 ;; This function calls:
  3309 ;;		Nothing
  3310 ;; This function is called by:
  3311 ;;		_PWM1_Duty
  3312 ;;		_PWM2_Duty
  3313 ;; This function uses a non-reentrant model
  3314 ;;
  3315                           
  3316                           
  3317                           ;psect for function ___fltol
  3318  0BCB                     ___fltol:
  3319  0BCB                     l1500:	
  3320                           ;incstack = 0
  3321                           ; Regs used in ___fltol: [wreg+status,2+status,0]
  3322                           
  3323  0BCB  1003               	clrc
  3324  0BCC  1283               	bcf	3,5	;RP0=0, select bank0
  3325  0BCD  1303               	bcf	3,6	;RP1=0, select bank0
  3326  0BCE  0D6A               	rlf	___fltol@f1+2,w
  3327  0BCF  0D6B               	rlf	___fltol@f1+3,w
  3328  0BD0  1683               	bsf	3,5	;RP0=1, select bank1
  3329  0BD1  1303               	bcf	3,6	;RP1=0, select bank1
  3330  0BD2  00A0               	movwf	??___fltol^(0+128)
  3331  0BD3  0820               	movf	??___fltol^(0+128),w
  3332  0BD4  1283               	bcf	3,5	;RP0=0, select bank0
  3333  0BD5  1303               	bcf	3,6	;RP1=0, select bank0
  3334  0BD6  00ED               	movwf	___fltol@exp1
  3335  0BD7  086D               	movf	___fltol@exp1,w
  3336  0BD8  1D03               	btfss	3,2
  3337  0BD9  2BDB               	goto	u1671
  3338  0BDA  2BDC               	goto	u1670
  3339  0BDB                     u1671:
  3340  0BDB  2BE5               	goto	l1506
  3341  0BDC                     u1670:
  3342  0BDC                     l1502:
  3343  0BDC  3000               	movlw	0
  3344  0BDD  00EB               	movwf	?___fltol+3
  3345  0BDE  3000               	movlw	0
  3346  0BDF  00EA               	movwf	?___fltol+2
  3347  0BE0  3000               	movlw	0
  3348  0BE1  00E9               	movwf	?___fltol+1
  3349  0BE2  3000               	movlw	0
  3350  0BE3  00E8               	movwf	?___fltol
  3351  0BE4  2C66               	goto	l436
  3352  0BE5                     l1506:
  3353  0BE5  0868               	movf	___fltol@f1,w
  3354  0BE6  1683               	bsf	3,5	;RP0=1, select bank1
  3355  0BE7  1303               	bcf	3,6	;RP1=0, select bank1
  3356  0BE8  00A0               	movwf	??___fltol^(0+128)
  3357  0BE9  1283               	bcf	3,5	;RP0=0, select bank0
  3358  0BEA  1303               	bcf	3,6	;RP1=0, select bank0
  3359  0BEB  0869               	movf	___fltol@f1+1,w
  3360  0BEC  1683               	bsf	3,5	;RP0=1, select bank1
  3361  0BED  1303               	bcf	3,6	;RP1=0, select bank1
  3362  0BEE  00A1               	movwf	(??___fltol^(0+128)+1)
  3363  0BEF  1283               	bcf	3,5	;RP0=0, select bank0
  3364  0BF0  1303               	bcf	3,6	;RP1=0, select bank0
  3365  0BF1  086A               	movf	___fltol@f1+2,w
  3366  0BF2  1683               	bsf	3,5	;RP0=1, select bank1
  3367  0BF3  1303               	bcf	3,6	;RP1=0, select bank1
  3368  0BF4  00A2               	movwf	(??___fltol^(0+128)+2)
  3369  0BF5  1283               	bcf	3,5	;RP0=0, select bank0
  3370  0BF6  1303               	bcf	3,6	;RP1=0, select bank0
  3371  0BF7  086B               	movf	___fltol@f1+3,w
  3372  0BF8  1683               	bsf	3,5	;RP0=1, select bank1
  3373  0BF9  1303               	bcf	3,6	;RP1=0, select bank1
  3374  0BFA  00A3               	movwf	(??___fltol^(0+128)+3)
  3375  0BFB  301F               	movlw	31
  3376  0BFC                     u1685:
  3377  0BFC  1003               	clrc
  3378  0BFD  0CA3               	rrf	(??___fltol^(0+128)+3),f
  3379  0BFE  0CA2               	rrf	(??___fltol^(0+128)+2),f
  3380  0BFF  0CA1               	rrf	(??___fltol^(0+128)+1),f
  3381  0C00  0CA0               	rrf	??___fltol^(0+128),f
  3382  0C01                     u1680:
  3383  0C01  3EFF               	addlw	-1
  3384  0C02  1D03               	skipz
  3385  0C03  2BFC               	goto	u1685
  3386  0C04  0820               	movf	??___fltol^(0+128),w
  3387  0C05  00A4               	movwf	(??___fltol+4)^(0+128)
  3388  0C06  0824               	movf	(??___fltol+4)^(0+128),w
  3389  0C07  1283               	bcf	3,5	;RP0=0, select bank0
  3390  0C08  1303               	bcf	3,6	;RP1=0, select bank0
  3391  0C09  00EC               	movwf	___fltol@sign1
  3392  0C0A                     l1508:
  3393  0C0A  17EA               	bsf	___fltol@f1+2,7
  3394  0C0B                     l1510:
  3395  0C0B  30FF               	movlw	255
  3396  0C0C  05E8               	andwf	___fltol@f1,f
  3397  0C0D  30FF               	movlw	255
  3398  0C0E  05E9               	andwf	___fltol@f1+1,f
  3399  0C0F  30FF               	movlw	255
  3400  0C10  05EA               	andwf	___fltol@f1+2,f
  3401  0C11  3000               	movlw	0
  3402  0C12  05EB               	andwf	___fltol@f1+3,f
  3403  0C13                     l1512:
  3404  0C13  3096               	movlw	150
  3405  0C14  02ED               	subwf	___fltol@exp1,f
  3406  0C15                     l1514:
  3407  0C15  1FED               	btfss	___fltol@exp1,7
  3408  0C16  2C18               	goto	u1691
  3409  0C17  2C19               	goto	u1690
  3410  0C18                     u1691:
  3411  0C18  2C37               	goto	l1524
  3412  0C19                     u1690:
  3413  0C19                     l1516:
  3414  0C19  086D               	movf	___fltol@exp1,w
  3415  0C1A  3A80               	xorlw	128
  3416  0C1B  3E97               	addlw	151
  3417  0C1C  1803               	skipnc
  3418  0C1D  2C1F               	goto	u1701
  3419  0C1E  2C20               	goto	u1700
  3420  0C1F                     u1701:
  3421  0C1F  2C21               	goto	l1522
  3422  0C20                     u1700:
  3423  0C20  2BDC               	goto	l1502
  3424  0C21                     l1522:
  3425  0C21  3001               	movlw	1
  3426  0C22                     u1715:
  3427  0C22  1003               	clrc
  3428  0C23  0CEB               	rrf	___fltol@f1+3,f
  3429  0C24  0CEA               	rrf	___fltol@f1+2,f
  3430  0C25  0CE9               	rrf	___fltol@f1+1,f
  3431  0C26  0CE8               	rrf	___fltol@f1,f
  3432  0C27  3EFF               	addlw	-1
  3433  0C28  1D03               	skipz
  3434  0C29  2C22               	goto	u1715
  3435  0C2A  3001               	movlw	1
  3436  0C2B  1683               	bsf	3,5	;RP0=1, select bank1
  3437  0C2C  1303               	bcf	3,6	;RP1=0, select bank1
  3438  0C2D  00A0               	movwf	??___fltol^(0+128)
  3439  0C2E  0820               	movf	??___fltol^(0+128),w
  3440  0C2F  1283               	bcf	3,5	;RP0=0, select bank0
  3441  0C30  1303               	bcf	3,6	;RP1=0, select bank0
  3442  0C31  07ED               	addwf	___fltol@exp1,f
  3443  0C32  1D03               	btfss	3,2
  3444  0C33  2C35               	goto	u1721
  3445  0C34  2C36               	goto	u1720
  3446  0C35                     u1721:
  3447  0C35  2C21               	goto	l1522
  3448  0C36                     u1720:
  3449  0C36  2C56               	goto	l1532
  3450  0C37                     l1524:
  3451  0C37  3020               	movlw	32
  3452  0C38  026D               	subwf	___fltol@exp1,w
  3453  0C39  1C03               	skipc
  3454  0C3A  2C3C               	goto	u1731
  3455  0C3B  2C3D               	goto	u1730
  3456  0C3C                     u1731:
  3457  0C3C  2C51               	goto	l443
  3458  0C3D                     u1730:
  3459  0C3D  2BDC               	goto	l1502
  3460  0C3E                     l1530:
  3461  0C3E  3001               	movlw	1
  3462  0C3F  1683               	bsf	3,5	;RP0=1, select bank1
  3463  0C40  1303               	bcf	3,6	;RP1=0, select bank1
  3464  0C41  00A0               	movwf	??___fltol^(0+128)
  3465  0C42                     u1745:
  3466  0C42  1003               	clrc
  3467  0C43  1283               	bcf	3,5	;RP0=0, select bank0
  3468  0C44  1303               	bcf	3,6	;RP1=0, select bank0
  3469  0C45  0DE8               	rlf	___fltol@f1,f
  3470  0C46  0DE9               	rlf	___fltol@f1+1,f
  3471  0C47  0DEA               	rlf	___fltol@f1+2,f
  3472  0C48  0DEB               	rlf	___fltol@f1+3,f
  3473  0C49  1683               	bsf	3,5	;RP0=1, select bank1
  3474  0C4A  1303               	bcf	3,6	;RP1=0, select bank1
  3475  0C4B  0BA0               	decfsz	??___fltol^(0+128),f
  3476  0C4C  2C42               	goto	u1745
  3477  0C4D  3001               	movlw	1
  3478  0C4E  1283               	bcf	3,5	;RP0=0, select bank0
  3479  0C4F  1303               	bcf	3,6	;RP1=0, select bank0
  3480  0C50  02ED               	subwf	___fltol@exp1,f
  3481  0C51                     l443:
  3482  0C51  086D               	movf	___fltol@exp1,w
  3483  0C52  1D03               	btfss	3,2
  3484  0C53  2C55               	goto	u1751
  3485  0C54  2C56               	goto	u1750
  3486  0C55                     u1751:
  3487  0C55  2C3E               	goto	l1530
  3488  0C56                     u1750:
  3489  0C56                     l1532:
  3490  0C56  086C               	movf	___fltol@sign1,w
  3491  0C57  1903               	btfsc	3,2
  3492  0C58  2C5A               	goto	u1761
  3493  0C59  2C5B               	goto	u1760
  3494  0C5A                     u1761:
  3495  0C5A  2C66               	goto	l446
  3496  0C5B                     u1760:
  3497  0C5B                     l1534:
  3498  0C5B  09E8               	comf	___fltol@f1,f
  3499  0C5C  09E9               	comf	___fltol@f1+1,f
  3500  0C5D  09EA               	comf	___fltol@f1+2,f
  3501  0C5E  09EB               	comf	___fltol@f1+3,f
  3502  0C5F  0AE8               	incf	___fltol@f1,f
  3503  0C60  1903               	skipnz
  3504  0C61  0AE9               	incf	___fltol@f1+1,f
  3505  0C62  1903               	skipnz
  3506  0C63  0AEA               	incf	___fltol@f1+2,f
  3507  0C64  1903               	skipnz
  3508  0C65  0AEB               	incf	___fltol@f1+3,f
  3509  0C66                     l446:
  3510  0C66                     l436:
  3511  0C66  0008               	return
  3512  0C67                     __end_of___fltol:
  3513                           
  3514                           	psect	text14
  3515  0491                     __ptext14:	
  3516 ;; *************** function ___flmul *****************
  3517 ;; Defined at:
  3518 ;;		line 8 in file "C:\Program Files\Microchip\xc8\v2.32\pic\sources\c90\common\sprcmul.c"
  3519 ;; Parameters:    Size  Location     Type
  3520 ;;  b               4   46[BANK0 ] long 
  3521 ;;  a               4   50[BANK0 ] long 
  3522 ;; Auto vars:     Size  Location     Type
  3523 ;;  prod            4   66[BANK0 ] struct .
  3524 ;;  grs             4   60[BANK0 ] unsigned long 
  3525 ;;  temp            2   70[BANK0 ] struct .
  3526 ;;  bexp            1   65[BANK0 ] unsigned char 
  3527 ;;  aexp            1   64[BANK0 ] unsigned char 
  3528 ;;  sign            1   59[BANK0 ] unsigned char 
  3529 ;; Return value:  Size  Location     Type
  3530 ;;                  4   46[BANK0 ] unsigned char 
  3531 ;; Registers used:
  3532 ;;		wreg, status,2, status,0, btemp+1, pclath, cstack
  3533 ;; Tracked objects:
  3534 ;;		On entry : 0/0
  3535 ;;		On exit  : 0/0
  3536 ;;		Unchanged: 0/0
  3537 ;; Data sizes:     COMMON   BANK0   BANK1   BANK3   BANK2
  3538 ;;      Params:         0       8       0       0       0
  3539 ;;      Locals:         0      13       0       0       0
  3540 ;;      Temps:          0       5       0       0       0
  3541 ;;      Totals:         0      26       0       0       0
  3542 ;;Total ram usage:       26 bytes
  3543 ;; Hardware stack levels used: 1
  3544 ;; Hardware stack levels required when called: 1
  3545 ;; This function calls:
  3546 ;;		__Umul8_16
  3547 ;; This function is called by:
  3548 ;;		_PWM1_Duty
  3549 ;;		_PWM2_Duty
  3550 ;; This function uses a non-reentrant model
  3551 ;;
  3552                           
  3553                           
  3554                           ;psect for function ___flmul
  3555  0491                     ___flmul:
  3556  0491                     l1726:	
  3557                           ;incstack = 0
  3558                           ; Regs used in ___flmul: [wreg+status,2+status,0+btemp+1+pclath+cstack]
  3559                           
  3560  0491  1283               	bcf	3,5	;RP0=0, select bank0
  3561  0492  1303               	bcf	3,6	;RP1=0, select bank0
  3562  0493  0851               	movf	___flmul@b+3,w
  3563  0494  3980               	andlw	128
  3564  0495  00D6               	movwf	??___flmul
  3565  0496  0856               	movf	??___flmul,w
  3566  0497  00DB               	movwf	___flmul@sign
  3567  0498                     l1728:
  3568  0498  0851               	movf	___flmul@b+3,w
  3569  0499  00D6               	movwf	??___flmul
  3570  049A  0756               	addwf	??___flmul,w
  3571  049B  00D7               	movwf	??___flmul+1
  3572  049C  0857               	movf	??___flmul+1,w
  3573  049D  00E1               	movwf	___flmul@bexp
  3574  049E                     l1730:
  3575  049E  1FD0               	btfss	___flmul@b+2,7
  3576  049F  2CA1               	goto	u2191
  3577  04A0  2CA2               	goto	u2190
  3578  04A1                     u2191:
  3579  04A1  2CA3               	goto	l1734
  3580  04A2                     u2190:
  3581  04A2                     l1732:
  3582  04A2  1461               	bsf	___flmul@bexp,0
  3583  04A3                     l1734:
  3584  04A3  0861               	movf	___flmul@bexp,w
  3585  04A4  1903               	btfsc	3,2
  3586  04A5  2CA7               	goto	u2201
  3587  04A6  2CA8               	goto	u2200
  3588  04A7                     u2201:
  3589  04A7  2CB7               	goto	l1742
  3590  04A8                     u2200:
  3591  04A8                     l1736:
  3592  04A8  0A61               	incf	___flmul@bexp,w
  3593  04A9  1D03               	btfss	3,2
  3594  04AA  2CAC               	goto	u2211
  3595  04AB  2CAD               	goto	u2210
  3596  04AC                     u2211:
  3597  04AC  2CB5               	goto	l1740
  3598  04AD                     u2210:
  3599  04AD                     l1738:
  3600  04AD  3000               	movlw	0
  3601  04AE  00D1               	movwf	___flmul@b+3
  3602  04AF  3000               	movlw	0
  3603  04B0  00D0               	movwf	___flmul@b+2
  3604  04B1  3000               	movlw	0
  3605  04B2  00CF               	movwf	___flmul@b+1
  3606  04B3  3000               	movlw	0
  3607  04B4  00CE               	movwf	___flmul@b
  3608  04B5                     l1740:
  3609  04B5  17D0               	bsf	___flmul@b+2,7
  3610  04B6  2CBF               	goto	l1744
  3611  04B7                     l1742:
  3612  04B7  3000               	movlw	0
  3613  04B8  00D1               	movwf	___flmul@b+3
  3614  04B9  3000               	movlw	0
  3615  04BA  00D0               	movwf	___flmul@b+2
  3616  04BB  3000               	movlw	0
  3617  04BC  00CF               	movwf	___flmul@b+1
  3618  04BD  3000               	movlw	0
  3619  04BE  00CE               	movwf	___flmul@b
  3620  04BF                     l1744:
  3621  04BF  0855               	movf	___flmul@a+3,w
  3622  04C0  3980               	andlw	128
  3623  04C1  00D6               	movwf	??___flmul
  3624  04C2  0856               	movf	??___flmul,w
  3625  04C3  06DB               	xorwf	___flmul@sign,f
  3626  04C4                     l1746:
  3627  04C4  0855               	movf	___flmul@a+3,w
  3628  04C5  00D6               	movwf	??___flmul
  3629  04C6  0756               	addwf	??___flmul,w
  3630  04C7  00D7               	movwf	??___flmul+1
  3631  04C8  0857               	movf	??___flmul+1,w
  3632  04C9  00E0               	movwf	___flmul@aexp
  3633  04CA                     l1748:
  3634  04CA  1FD4               	btfss	___flmul@a+2,7
  3635  04CB  2CCD               	goto	u2221
  3636  04CC  2CCE               	goto	u2220
  3637  04CD                     u2221:
  3638  04CD  2CCF               	goto	l1752
  3639  04CE                     u2220:
  3640  04CE                     l1750:
  3641  04CE  1460               	bsf	___flmul@aexp,0
  3642  04CF                     l1752:
  3643  04CF  0860               	movf	___flmul@aexp,w
  3644  04D0  1903               	btfsc	3,2
  3645  04D1  2CD3               	goto	u2231
  3646  04D2  2CD4               	goto	u2230
  3647  04D3                     u2231:
  3648  04D3  2CE3               	goto	l1760
  3649  04D4                     u2230:
  3650  04D4                     l1754:
  3651  04D4  0A60               	incf	___flmul@aexp,w
  3652  04D5  1D03               	btfss	3,2
  3653  04D6  2CD8               	goto	u2241
  3654  04D7  2CD9               	goto	u2240
  3655  04D8                     u2241:
  3656  04D8  2CE1               	goto	l1758
  3657  04D9                     u2240:
  3658  04D9                     l1756:
  3659  04D9  3000               	movlw	0
  3660  04DA  00D5               	movwf	___flmul@a+3
  3661  04DB  3000               	movlw	0
  3662  04DC  00D4               	movwf	___flmul@a+2
  3663  04DD  3000               	movlw	0
  3664  04DE  00D3               	movwf	___flmul@a+1
  3665  04DF  3000               	movlw	0
  3666  04E0  00D2               	movwf	___flmul@a
  3667  04E1                     l1758:
  3668  04E1  17D4               	bsf	___flmul@a+2,7
  3669  04E2  2CEB               	goto	l1762
  3670  04E3                     l1760:
  3671  04E3  3000               	movlw	0
  3672  04E4  00D5               	movwf	___flmul@a+3
  3673  04E5  3000               	movlw	0
  3674  04E6  00D4               	movwf	___flmul@a+2
  3675  04E7  3000               	movlw	0
  3676  04E8  00D3               	movwf	___flmul@a+1
  3677  04E9  3000               	movlw	0
  3678  04EA  00D2               	movwf	___flmul@a
  3679  04EB                     l1762:
  3680  04EB  0860               	movf	___flmul@aexp,w
  3681  04EC  1903               	btfsc	3,2
  3682  04ED  2CEF               	goto	u2251
  3683  04EE  2CF0               	goto	u2250
  3684  04EF                     u2251:
  3685  04EF  2CF5               	goto	l1766
  3686  04F0                     u2250:
  3687  04F0                     l1764:
  3688  04F0  0861               	movf	___flmul@bexp,w
  3689  04F1  1D03               	btfss	3,2
  3690  04F2  2CF4               	goto	u2261
  3691  04F3  2CF5               	goto	u2260
  3692  04F4                     u2261:
  3693  04F4  2CFE               	goto	l1770
  3694  04F5                     u2260:
  3695  04F5                     l1766:
  3696  04F5  3000               	movlw	0
  3697  04F6  00D1               	movwf	?___flmul+3
  3698  04F7  3000               	movlw	0
  3699  04F8  00D0               	movwf	?___flmul+2
  3700  04F9  3000               	movlw	0
  3701  04FA  00CF               	movwf	?___flmul+1
  3702  04FB  3000               	movlw	0
  3703  04FC  00CE               	movwf	?___flmul
  3704  04FD  2FF1               	goto	l639
  3705  04FE                     l1770:
  3706  04FE  084E               	movf	___flmul@b,w
  3707  04FF  00D6               	movwf	??___flmul
  3708  0500  0856               	movf	??___flmul,w
  3709  0501  00F0               	movwf	__Umul8_16@multiplicand
  3710  0502  0854               	movf	___flmul@a+2,w
  3711  0503  120A  158A  22BB  120A  118A  	fcall	__Umul8_16
  3712  0508  0871               	movf	?__Umul8_16+1,w
  3713  0509  1283               	bcf	3,5	;RP0=0, select bank0
  3714  050A  1303               	bcf	3,6	;RP1=0, select bank0
  3715  050B  00E7               	movwf	___flmul@temp+1
  3716  050C  0870               	movf	?__Umul8_16,w
  3717  050D  00E6               	movwf	___flmul@temp
  3718  050E                     l1772:
  3719  050E  0866               	movf	___flmul@temp,w
  3720  050F  00D6               	movwf	??___flmul
  3721  0510  01D7               	clrf	??___flmul+1
  3722  0511  01D8               	clrf	??___flmul+2
  3723  0512  01D9               	clrf	??___flmul+3
  3724  0513  0859               	movf	??___flmul+3,w
  3725  0514  00DF               	movwf	___flmul@grs+3
  3726  0515  0858               	movf	??___flmul+2,w
  3727  0516  00DE               	movwf	___flmul@grs+2
  3728  0517  0857               	movf	??___flmul+1,w
  3729  0518  00DD               	movwf	___flmul@grs+1
  3730  0519  0856               	movf	??___flmul,w
  3731  051A  00DC               	movwf	___flmul@grs
  3732  051B                     l1774:
  3733  051B  0867               	movf	___flmul@temp+1,w
  3734  051C  00D6               	movwf	??___flmul
  3735  051D  01D7               	clrf	??___flmul+1
  3736  051E  01D8               	clrf	??___flmul+2
  3737  051F  01D9               	clrf	??___flmul+3
  3738  0520  0859               	movf	??___flmul+3,w
  3739  0521  00E5               	movwf	___flmul@prod+3
  3740  0522  0858               	movf	??___flmul+2,w
  3741  0523  00E4               	movwf	___flmul@prod+2
  3742  0524  0857               	movf	??___flmul+1,w
  3743  0525  00E3               	movwf	___flmul@prod+1
  3744  0526  0856               	movf	??___flmul,w
  3745  0527  00E2               	movwf	___flmul@prod
  3746  0528  084F               	movf	___flmul@b+1,w
  3747  0529  00D6               	movwf	??___flmul
  3748  052A  0856               	movf	??___flmul,w
  3749  052B  00F0               	movwf	__Umul8_16@multiplicand
  3750  052C  0853               	movf	___flmul@a+1,w
  3751  052D  120A  158A  22BB  120A  118A  	fcall	__Umul8_16
  3752  0532  0871               	movf	?__Umul8_16+1,w
  3753  0533  1283               	bcf	3,5	;RP0=0, select bank0
  3754  0534  1303               	bcf	3,6	;RP1=0, select bank0
  3755  0535  00E7               	movwf	___flmul@temp+1
  3756  0536  0870               	movf	?__Umul8_16,w
  3757  0537  00E6               	movwf	___flmul@temp
  3758  0538                     l1776:
  3759  0538  0866               	movf	___flmul@temp,w
  3760  0539  00D6               	movwf	??___flmul
  3761  053A  01D7               	clrf	??___flmul+1
  3762  053B  01D8               	clrf	??___flmul+2
  3763  053C  01D9               	clrf	??___flmul+3
  3764  053D  0856               	movf	??___flmul,w
  3765  053E  07DC               	addwf	___flmul@grs,f
  3766  053F  0857               	movf	??___flmul+1,w
  3767  0540  1103               	clrz
  3768  0541  1803               	skipnc
  3769  0542  3E01               	addlw	1
  3770  0543  1903               	skipnz
  3771  0544  2D46               	goto	u2271
  3772  0545  07DD               	addwf	___flmul@grs+1,f
  3773  0546                     u2271:
  3774  0546  0858               	movf	??___flmul+2,w
  3775  0547  1103               	clrz
  3776  0548  1803               	skipnc
  3777  0549  3E01               	addlw	1
  3778  054A  1903               	skipnz
  3779  054B  2D4D               	goto	u2272
  3780  054C  07DE               	addwf	___flmul@grs+2,f
  3781  054D                     u2272:
  3782  054D  0859               	movf	??___flmul+3,w
  3783  054E  1103               	clrz
  3784  054F  1803               	skipnc
  3785  0550  3E01               	addlw	1
  3786  0551  1903               	skipnz
  3787  0552  2D54               	goto	u2273
  3788  0553  07DF               	addwf	___flmul@grs+3,f
  3789  0554                     u2273:
  3790  0554                     l1778:
  3791  0554  0867               	movf	___flmul@temp+1,w
  3792  0555  00D6               	movwf	??___flmul
  3793  0556  01D7               	clrf	??___flmul+1
  3794  0557  01D8               	clrf	??___flmul+2
  3795  0558  01D9               	clrf	??___flmul+3
  3796  0559  0856               	movf	??___flmul,w
  3797  055A  07E2               	addwf	___flmul@prod,f
  3798  055B  0857               	movf	??___flmul+1,w
  3799  055C  1103               	clrz
  3800  055D  1803               	skipnc
  3801  055E  3E01               	addlw	1
  3802  055F  1903               	skipnz
  3803  0560  2D62               	goto	u2281
  3804  0561  07E3               	addwf	___flmul@prod+1,f
  3805  0562                     u2281:
  3806  0562  0858               	movf	??___flmul+2,w
  3807  0563  1103               	clrz
  3808  0564  1803               	skipnc
  3809  0565  3E01               	addlw	1
  3810  0566  1903               	skipnz
  3811  0567  2D69               	goto	u2282
  3812  0568  07E4               	addwf	___flmul@prod+2,f
  3813  0569                     u2282:
  3814  0569  0859               	movf	??___flmul+3,w
  3815  056A  1103               	clrz
  3816  056B  1803               	skipnc
  3817  056C  3E01               	addlw	1
  3818  056D  1903               	skipnz
  3819  056E  2D70               	goto	u2283
  3820  056F  07E5               	addwf	___flmul@prod+3,f
  3821  0570                     u2283:
  3822  0570  0850               	movf	___flmul@b+2,w
  3823  0571  00D6               	movwf	??___flmul
  3824  0572  0856               	movf	??___flmul,w
  3825  0573  00F0               	movwf	__Umul8_16@multiplicand
  3826  0574  0852               	movf	___flmul@a,w
  3827  0575  120A  158A  22BB  120A  118A  	fcall	__Umul8_16
  3828  057A  0871               	movf	?__Umul8_16+1,w
  3829  057B  1283               	bcf	3,5	;RP0=0, select bank0
  3830  057C  1303               	bcf	3,6	;RP1=0, select bank0
  3831  057D  00E7               	movwf	___flmul@temp+1
  3832  057E  0870               	movf	?__Umul8_16,w
  3833  057F  00E6               	movwf	___flmul@temp
  3834  0580                     l1780:
  3835  0580  0866               	movf	___flmul@temp,w
  3836  0581  00D6               	movwf	??___flmul
  3837  0582  01D7               	clrf	??___flmul+1
  3838  0583  01D8               	clrf	??___flmul+2
  3839  0584  01D9               	clrf	??___flmul+3
  3840  0585  0856               	movf	??___flmul,w
  3841  0586  07DC               	addwf	___flmul@grs,f
  3842  0587  0857               	movf	??___flmul+1,w
  3843  0588  1103               	clrz
  3844  0589  1803               	skipnc
  3845  058A  3E01               	addlw	1
  3846  058B  1903               	skipnz
  3847  058C  2D8E               	goto	u2291
  3848  058D  07DD               	addwf	___flmul@grs+1,f
  3849  058E                     u2291:
  3850  058E  0858               	movf	??___flmul+2,w
  3851  058F  1103               	clrz
  3852  0590  1803               	skipnc
  3853  0591  3E01               	addlw	1
  3854  0592  1903               	skipnz
  3855  0593  2D95               	goto	u2292
  3856  0594  07DE               	addwf	___flmul@grs+2,f
  3857  0595                     u2292:
  3858  0595  0859               	movf	??___flmul+3,w
  3859  0596  1103               	clrz
  3860  0597  1803               	skipnc
  3861  0598  3E01               	addlw	1
  3862  0599  1903               	skipnz
  3863  059A  2D9C               	goto	u2293
  3864  059B  07DF               	addwf	___flmul@grs+3,f
  3865  059C                     u2293:
  3866  059C                     l1782:
  3867  059C  0867               	movf	___flmul@temp+1,w
  3868  059D  00D6               	movwf	??___flmul
  3869  059E  01D7               	clrf	??___flmul+1
  3870  059F  01D8               	clrf	??___flmul+2
  3871  05A0  01D9               	clrf	??___flmul+3
  3872  05A1  0856               	movf	??___flmul,w
  3873  05A2  07E2               	addwf	___flmul@prod,f
  3874  05A3  0857               	movf	??___flmul+1,w
  3875  05A4  1103               	clrz
  3876  05A5  1803               	skipnc
  3877  05A6  3E01               	addlw	1
  3878  05A7  1903               	skipnz
  3879  05A8  2DAA               	goto	u2301
  3880  05A9  07E3               	addwf	___flmul@prod+1,f
  3881  05AA                     u2301:
  3882  05AA  0858               	movf	??___flmul+2,w
  3883  05AB  1103               	clrz
  3884  05AC  1803               	skipnc
  3885  05AD  3E01               	addlw	1
  3886  05AE  1903               	skipnz
  3887  05AF  2DB1               	goto	u2302
  3888  05B0  07E4               	addwf	___flmul@prod+2,f
  3889  05B1                     u2302:
  3890  05B1  0859               	movf	??___flmul+3,w
  3891  05B2  1103               	clrz
  3892  05B3  1803               	skipnc
  3893  05B4  3E01               	addlw	1
  3894  05B5  1903               	skipnz
  3895  05B6  2DB8               	goto	u2303
  3896  05B7  07E5               	addwf	___flmul@prod+3,f
  3897  05B8                     u2303:
  3898  05B8                     l1784:
  3899  05B8  3008               	movlw	8
  3900  05B9  00D6               	movwf	??___flmul
  3901  05BA                     u2315:
  3902  05BA  1003               	clrc
  3903  05BB  0DDC               	rlf	___flmul@grs,f
  3904  05BC  0DDD               	rlf	___flmul@grs+1,f
  3905  05BD  0DDE               	rlf	___flmul@grs+2,f
  3906  05BE  0DDF               	rlf	___flmul@grs+3,f
  3907  05BF  0BD6               	decfsz	??___flmul,f
  3908  05C0  2DBA               	goto	u2315
  3909  05C1                     l1786:
  3910  05C1  084F               	movf	___flmul@b+1,w
  3911  05C2  00D6               	movwf	??___flmul
  3912  05C3  0856               	movf	??___flmul,w
  3913  05C4  00F0               	movwf	__Umul8_16@multiplicand
  3914  05C5  0852               	movf	___flmul@a,w
  3915  05C6  120A  158A  22BB  120A  118A  	fcall	__Umul8_16
  3916  05CB  0871               	movf	?__Umul8_16+1,w
  3917  05CC  1283               	bcf	3,5	;RP0=0, select bank0
  3918  05CD  1303               	bcf	3,6	;RP1=0, select bank0
  3919  05CE  00E7               	movwf	___flmul@temp+1
  3920  05CF  0870               	movf	?__Umul8_16,w
  3921  05D0  00E6               	movwf	___flmul@temp
  3922  05D1                     l1788:
  3923  05D1  0866               	movf	___flmul@temp,w
  3924  05D2  00D6               	movwf	??___flmul
  3925  05D3  0867               	movf	___flmul@temp+1,w
  3926  05D4  00D7               	movwf	??___flmul+1
  3927  05D5  01D8               	clrf	??___flmul+2
  3928  05D6  01D9               	clrf	??___flmul+3
  3929  05D7  0856               	movf	??___flmul,w
  3930  05D8  07DC               	addwf	___flmul@grs,f
  3931  05D9  0857               	movf	??___flmul+1,w
  3932  05DA  1103               	clrz
  3933  05DB  1803               	skipnc
  3934  05DC  3E01               	addlw	1
  3935  05DD  1903               	skipnz
  3936  05DE  2DE0               	goto	u2321
  3937  05DF  07DD               	addwf	___flmul@grs+1,f
  3938  05E0                     u2321:
  3939  05E0  0858               	movf	??___flmul+2,w
  3940  05E1  1103               	clrz
  3941  05E2  1803               	skipnc
  3942  05E3  3E01               	addlw	1
  3943  05E4  1903               	skipnz
  3944  05E5  2DE7               	goto	u2322
  3945  05E6  07DE               	addwf	___flmul@grs+2,f
  3946  05E7                     u2322:
  3947  05E7  0859               	movf	??___flmul+3,w
  3948  05E8  1103               	clrz
  3949  05E9  1803               	skipnc
  3950  05EA  3E01               	addlw	1
  3951  05EB  1903               	skipnz
  3952  05EC  2DEE               	goto	u2323
  3953  05ED  07DF               	addwf	___flmul@grs+3,f
  3954  05EE                     u2323:
  3955  05EE                     l1790:
  3956  05EE  084E               	movf	___flmul@b,w
  3957  05EF  00D6               	movwf	??___flmul
  3958  05F0  0856               	movf	??___flmul,w
  3959  05F1  00F0               	movwf	__Umul8_16@multiplicand
  3960  05F2  0853               	movf	___flmul@a+1,w
  3961  05F3  120A  158A  22BB  120A  118A  	fcall	__Umul8_16
  3962  05F8  0871               	movf	?__Umul8_16+1,w
  3963  05F9  1283               	bcf	3,5	;RP0=0, select bank0
  3964  05FA  1303               	bcf	3,6	;RP1=0, select bank0
  3965  05FB  00E7               	movwf	___flmul@temp+1
  3966  05FC  0870               	movf	?__Umul8_16,w
  3967  05FD  00E6               	movwf	___flmul@temp
  3968  05FE                     l1792:
  3969  05FE  0866               	movf	___flmul@temp,w
  3970  05FF  00D6               	movwf	??___flmul
  3971  0600  0867               	movf	___flmul@temp+1,w
  3972  0601  00D7               	movwf	??___flmul+1
  3973  0602  01D8               	clrf	??___flmul+2
  3974  0603  01D9               	clrf	??___flmul+3
  3975  0604  0856               	movf	??___flmul,w
  3976  0605  07DC               	addwf	___flmul@grs,f
  3977  0606  0857               	movf	??___flmul+1,w
  3978  0607  1103               	clrz
  3979  0608  1803               	skipnc
  3980  0609  3E01               	addlw	1
  3981  060A  1903               	skipnz
  3982  060B  2E0D               	goto	u2331
  3983  060C  07DD               	addwf	___flmul@grs+1,f
  3984  060D                     u2331:
  3985  060D  0858               	movf	??___flmul+2,w
  3986  060E  1103               	clrz
  3987  060F  1803               	skipnc
  3988  0610  3E01               	addlw	1
  3989  0611  1903               	skipnz
  3990  0612  2E14               	goto	u2332
  3991  0613  07DE               	addwf	___flmul@grs+2,f
  3992  0614                     u2332:
  3993  0614  0859               	movf	??___flmul+3,w
  3994  0615  1103               	clrz
  3995  0616  1803               	skipnc
  3996  0617  3E01               	addlw	1
  3997  0618  1903               	skipnz
  3998  0619  2E1B               	goto	u2333
  3999  061A  07DF               	addwf	___flmul@grs+3,f
  4000  061B                     u2333:
  4001  061B                     l1794:
  4002  061B  3008               	movlw	8
  4003  061C  00D6               	movwf	??___flmul
  4004  061D                     u2345:
  4005  061D  1003               	clrc
  4006  061E  0DDC               	rlf	___flmul@grs,f
  4007  061F  0DDD               	rlf	___flmul@grs+1,f
  4008  0620  0DDE               	rlf	___flmul@grs+2,f
  4009  0621  0DDF               	rlf	___flmul@grs+3,f
  4010  0622  0BD6               	decfsz	??___flmul,f
  4011  0623  2E1D               	goto	u2345
  4012  0624  084E               	movf	___flmul@b,w
  4013  0625  00D6               	movwf	??___flmul
  4014  0626  0856               	movf	??___flmul,w
  4015  0627  00F0               	movwf	__Umul8_16@multiplicand
  4016  0628  0852               	movf	___flmul@a,w
  4017  0629  120A  158A  22BB  120A  118A  	fcall	__Umul8_16
  4018  062E  0871               	movf	?__Umul8_16+1,w
  4019  062F  1283               	bcf	3,5	;RP0=0, select bank0
  4020  0630  1303               	bcf	3,6	;RP1=0, select bank0
  4021  0631  00E7               	movwf	___flmul@temp+1
  4022  0632  0870               	movf	?__Umul8_16,w
  4023  0633  00E6               	movwf	___flmul@temp
  4024  0634                     l1796:
  4025  0634  0866               	movf	___flmul@temp,w
  4026  0635  00D6               	movwf	??___flmul
  4027  0636  0867               	movf	___flmul@temp+1,w
  4028  0637  00D7               	movwf	??___flmul+1
  4029  0638  01D8               	clrf	??___flmul+2
  4030  0639  01D9               	clrf	??___flmul+3
  4031  063A  0856               	movf	??___flmul,w
  4032  063B  07DC               	addwf	___flmul@grs,f
  4033  063C  0857               	movf	??___flmul+1,w
  4034  063D  1103               	clrz
  4035  063E  1803               	skipnc
  4036  063F  3E01               	addlw	1
  4037  0640  1903               	skipnz
  4038  0641  2E43               	goto	u2351
  4039  0642  07DD               	addwf	___flmul@grs+1,f
  4040  0643                     u2351:
  4041  0643  0858               	movf	??___flmul+2,w
  4042  0644  1103               	clrz
  4043  0645  1803               	skipnc
  4044  0646  3E01               	addlw	1
  4045  0647  1903               	skipnz
  4046  0648  2E4A               	goto	u2352
  4047  0649  07DE               	addwf	___flmul@grs+2,f
  4048  064A                     u2352:
  4049  064A  0859               	movf	??___flmul+3,w
  4050  064B  1103               	clrz
  4051  064C  1803               	skipnc
  4052  064D  3E01               	addlw	1
  4053  064E  1903               	skipnz
  4054  064F  2E51               	goto	u2353
  4055  0650  07DF               	addwf	___flmul@grs+3,f
  4056  0651                     u2353:
  4057  0651                     l1798:
  4058  0651  084F               	movf	___flmul@b+1,w
  4059  0652  00D6               	movwf	??___flmul
  4060  0653  0856               	movf	??___flmul,w
  4061  0654  00F0               	movwf	__Umul8_16@multiplicand
  4062  0655  0854               	movf	___flmul@a+2,w
  4063  0656  120A  158A  22BB  120A  118A  	fcall	__Umul8_16
  4064  065B  0871               	movf	?__Umul8_16+1,w
  4065  065C  1283               	bcf	3,5	;RP0=0, select bank0
  4066  065D  1303               	bcf	3,6	;RP1=0, select bank0
  4067  065E  00E7               	movwf	___flmul@temp+1
  4068  065F  0870               	movf	?__Umul8_16,w
  4069  0660  00E6               	movwf	___flmul@temp
  4070  0661  0866               	movf	___flmul@temp,w
  4071  0662  00D6               	movwf	??___flmul
  4072  0663  0867               	movf	___flmul@temp+1,w
  4073  0664  00D7               	movwf	??___flmul+1
  4074  0665  01D8               	clrf	??___flmul+2
  4075  0666  01D9               	clrf	??___flmul+3
  4076  0667  0856               	movf	??___flmul,w
  4077  0668  07E2               	addwf	___flmul@prod,f
  4078  0669  0857               	movf	??___flmul+1,w
  4079  066A  1103               	clrz
  4080  066B  1803               	skipnc
  4081  066C  3E01               	addlw	1
  4082  066D  1903               	skipnz
  4083  066E  2E70               	goto	u2361
  4084  066F  07E3               	addwf	___flmul@prod+1,f
  4085  0670                     u2361:
  4086  0670  0858               	movf	??___flmul+2,w
  4087  0671  1103               	clrz
  4088  0672  1803               	skipnc
  4089  0673  3E01               	addlw	1
  4090  0674  1903               	skipnz
  4091  0675  2E77               	goto	u2362
  4092  0676  07E4               	addwf	___flmul@prod+2,f
  4093  0677                     u2362:
  4094  0677  0859               	movf	??___flmul+3,w
  4095  0678  1103               	clrz
  4096  0679  1803               	skipnc
  4097  067A  3E01               	addlw	1
  4098  067B  1903               	skipnz
  4099  067C  2E7E               	goto	u2363
  4100  067D  07E5               	addwf	___flmul@prod+3,f
  4101  067E                     u2363:
  4102  067E                     l1800:
  4103  067E  0850               	movf	___flmul@b+2,w
  4104  067F  00D6               	movwf	??___flmul
  4105  0680  0856               	movf	??___flmul,w
  4106  0681  00F0               	movwf	__Umul8_16@multiplicand
  4107  0682  0853               	movf	___flmul@a+1,w
  4108  0683  120A  158A  22BB  120A  118A  	fcall	__Umul8_16
  4109  0688  0871               	movf	?__Umul8_16+1,w
  4110  0689  1283               	bcf	3,5	;RP0=0, select bank0
  4111  068A  1303               	bcf	3,6	;RP1=0, select bank0
  4112  068B  00E7               	movwf	___flmul@temp+1
  4113  068C  0870               	movf	?__Umul8_16,w
  4114  068D  00E6               	movwf	___flmul@temp
  4115  068E                     l1802:
  4116  068E  0866               	movf	___flmul@temp,w
  4117  068F  00D6               	movwf	??___flmul
  4118  0690  0867               	movf	___flmul@temp+1,w
  4119  0691  00D7               	movwf	??___flmul+1
  4120  0692  01D8               	clrf	??___flmul+2
  4121  0693  01D9               	clrf	??___flmul+3
  4122  0694  0856               	movf	??___flmul,w
  4123  0695  07E2               	addwf	___flmul@prod,f
  4124  0696  0857               	movf	??___flmul+1,w
  4125  0697  1103               	clrz
  4126  0698  1803               	skipnc
  4127  0699  3E01               	addlw	1
  4128  069A  1903               	skipnz
  4129  069B  2E9D               	goto	u2371
  4130  069C  07E3               	addwf	___flmul@prod+1,f
  4131  069D                     u2371:
  4132  069D  0858               	movf	??___flmul+2,w
  4133  069E  1103               	clrz
  4134  069F  1803               	skipnc
  4135  06A0  3E01               	addlw	1
  4136  06A1  1903               	skipnz
  4137  06A2  2EA4               	goto	u2372
  4138  06A3  07E4               	addwf	___flmul@prod+2,f
  4139  06A4                     u2372:
  4140  06A4  0859               	movf	??___flmul+3,w
  4141  06A5  1103               	clrz
  4142  06A6  1803               	skipnc
  4143  06A7  3E01               	addlw	1
  4144  06A8  1903               	skipnz
  4145  06A9  2EAB               	goto	u2373
  4146  06AA  07E5               	addwf	___flmul@prod+3,f
  4147  06AB                     u2373:
  4148  06AB  0850               	movf	___flmul@b+2,w
  4149  06AC  00D6               	movwf	??___flmul
  4150  06AD  0856               	movf	??___flmul,w
  4151  06AE  00F0               	movwf	__Umul8_16@multiplicand
  4152  06AF  0854               	movf	___flmul@a+2,w
  4153  06B0  120A  158A  22BB  120A  118A  	fcall	__Umul8_16
  4154  06B5  0871               	movf	?__Umul8_16+1,w
  4155  06B6  1283               	bcf	3,5	;RP0=0, select bank0
  4156  06B7  1303               	bcf	3,6	;RP1=0, select bank0
  4157  06B8  00E7               	movwf	___flmul@temp+1
  4158  06B9  0870               	movf	?__Umul8_16,w
  4159  06BA  00E6               	movwf	___flmul@temp
  4160  06BB                     l1804:
  4161  06BB  0866               	movf	___flmul@temp,w
  4162  06BC  00D6               	movwf	??___flmul
  4163  06BD  0867               	movf	___flmul@temp+1,w
  4164  06BE  00D7               	movwf	??___flmul+1
  4165  06BF  01D8               	clrf	??___flmul+2
  4166  06C0  01D9               	clrf	??___flmul+3
  4167  06C1  3008               	movlw	8
  4168  06C2                     u2385:
  4169  06C2  1003               	clrc
  4170  06C3  0DD6               	rlf	??___flmul,f
  4171  06C4  0DD7               	rlf	??___flmul+1,f
  4172  06C5  0DD8               	rlf	??___flmul+2,f
  4173  06C6  0DD9               	rlf	??___flmul+3,f
  4174  06C7                     u2380:
  4175  06C7  3EFF               	addlw	-1
  4176  06C8  1D03               	skipz
  4177  06C9  2EC2               	goto	u2385
  4178  06CA  0856               	movf	??___flmul,w
  4179  06CB  07E2               	addwf	___flmul@prod,f
  4180  06CC  0857               	movf	??___flmul+1,w
  4181  06CD  1103               	clrz
  4182  06CE  1803               	skipnc
  4183  06CF  3E01               	addlw	1
  4184  06D0  1903               	skipnz
  4185  06D1  2ED3               	goto	u2391
  4186  06D2  07E3               	addwf	___flmul@prod+1,f
  4187  06D3                     u2391:
  4188  06D3  0858               	movf	??___flmul+2,w
  4189  06D4  1103               	clrz
  4190  06D5  1803               	skipnc
  4191  06D6  3E01               	addlw	1
  4192  06D7  1903               	skipnz
  4193  06D8  2EDA               	goto	u2392
  4194  06D9  07E4               	addwf	___flmul@prod+2,f
  4195  06DA                     u2392:
  4196  06DA  0859               	movf	??___flmul+3,w
  4197  06DB  1103               	clrz
  4198  06DC  1803               	skipnc
  4199  06DD  3E01               	addlw	1
  4200  06DE  1903               	skipnz
  4201  06DF  2EE1               	goto	u2393
  4202  06E0  07E5               	addwf	___flmul@prod+3,f
  4203  06E1                     u2393:
  4204  06E1                     l1806:
  4205  06E1  085C               	movf	___flmul@grs,w
  4206  06E2  00D6               	movwf	??___flmul
  4207  06E3  085D               	movf	___flmul@grs+1,w
  4208  06E4  00D7               	movwf	??___flmul+1
  4209  06E5  085E               	movf	___flmul@grs+2,w
  4210  06E6  00D8               	movwf	??___flmul+2
  4211  06E7  085F               	movf	___flmul@grs+3,w
  4212  06E8  00D9               	movwf	??___flmul+3
  4213  06E9  3018               	movlw	24
  4214  06EA                     u2405:
  4215  06EA  1003               	clrc
  4216  06EB  0CD9               	rrf	??___flmul+3,f
  4217  06EC  0CD8               	rrf	??___flmul+2,f
  4218  06ED  0CD7               	rrf	??___flmul+1,f
  4219  06EE  0CD6               	rrf	??___flmul,f
  4220  06EF                     u2400:
  4221  06EF  3EFF               	addlw	-1
  4222  06F0  1D03               	skipz
  4223  06F1  2EEA               	goto	u2405
  4224  06F2  0856               	movf	??___flmul,w
  4225  06F3  07E2               	addwf	___flmul@prod,f
  4226  06F4  0857               	movf	??___flmul+1,w
  4227  06F5  1103               	clrz
  4228  06F6  1803               	skipnc
  4229  06F7  3E01               	addlw	1
  4230  06F8  1903               	skipnz
  4231  06F9  2EFB               	goto	u2411
  4232  06FA  07E3               	addwf	___flmul@prod+1,f
  4233  06FB                     u2411:
  4234  06FB  0858               	movf	??___flmul+2,w
  4235  06FC  1103               	clrz
  4236  06FD  1803               	skipnc
  4237  06FE  3E01               	addlw	1
  4238  06FF  1903               	skipnz
  4239  0700  2F02               	goto	u2412
  4240  0701  07E4               	addwf	___flmul@prod+2,f
  4241  0702                     u2412:
  4242  0702  0859               	movf	??___flmul+3,w
  4243  0703  1103               	clrz
  4244  0704  1803               	skipnc
  4245  0705  3E01               	addlw	1
  4246  0706  1903               	skipnz
  4247  0707  2F09               	goto	u2413
  4248  0708  07E5               	addwf	___flmul@prod+3,f
  4249  0709                     u2413:
  4250  0709                     l1808:
  4251  0709  3008               	movlw	8
  4252  070A  00D6               	movwf	??___flmul
  4253  070B                     u2425:
  4254  070B  1003               	clrc
  4255  070C  0DDC               	rlf	___flmul@grs,f
  4256  070D  0DDD               	rlf	___flmul@grs+1,f
  4257  070E  0DDE               	rlf	___flmul@grs+2,f
  4258  070F  0DDF               	rlf	___flmul@grs+3,f
  4259  0710  0BD6               	decfsz	??___flmul,f
  4260  0711  2F0B               	goto	u2425
  4261  0712                     l1810:
  4262  0712  0861               	movf	___flmul@bexp,w
  4263  0713  0760               	addwf	___flmul@aexp,w
  4264  0714  00D6               	movwf	??___flmul
  4265  0715  01D7               	clrf	??___flmul+1
  4266  0716  0DD7               	rlf	??___flmul+1,f
  4267  0717  0856               	movf	??___flmul,w
  4268  0718  3E82               	addlw	130
  4269  0719  00E6               	movwf	___flmul@temp
  4270  071A  0857               	movf	??___flmul+1,w
  4271  071B  1803               	skipnc
  4272  071C  3E01               	addlw	1
  4273  071D  3EFF               	addlw	255
  4274  071E  00E7               	movwf	___flmul@temp+1
  4275  071F  2F3D               	goto	l1822
  4276  0720                     l1812:
  4277  0720  3001               	movlw	1
  4278  0721  00D6               	movwf	??___flmul
  4279  0722                     u2435:
  4280  0722  1003               	clrc
  4281  0723  0DE2               	rlf	___flmul@prod,f
  4282  0724  0DE3               	rlf	___flmul@prod+1,f
  4283  0725  0DE4               	rlf	___flmul@prod+2,f
  4284  0726  0DE5               	rlf	___flmul@prod+3,f
  4285  0727  0BD6               	decfsz	??___flmul,f
  4286  0728  2F22               	goto	u2435
  4287  0729                     l1814:
  4288  0729  1FDF               	btfss	___flmul@grs+3,7
  4289  072A  2F2C               	goto	u2441
  4290  072B  2F2D               	goto	u2440
  4291  072C                     u2441:
  4292  072C  2F2E               	goto	l1818
  4293  072D                     u2440:
  4294  072D                     l1816:
  4295  072D  1462               	bsf	___flmul@prod,0
  4296  072E                     l1818:
  4297  072E  3001               	movlw	1
  4298  072F  00D6               	movwf	??___flmul
  4299  0730                     u2455:
  4300  0730  1003               	clrc
  4301  0731  0DDC               	rlf	___flmul@grs,f
  4302  0732  0DDD               	rlf	___flmul@grs+1,f
  4303  0733  0DDE               	rlf	___flmul@grs+2,f
  4304  0734  0DDF               	rlf	___flmul@grs+3,f
  4305  0735  0BD6               	decfsz	??___flmul,f
  4306  0736  2F30               	goto	u2455
  4307  0737                     l1820:
  4308  0737  30FF               	movlw	255
  4309  0738  07E6               	addwf	___flmul@temp,f
  4310  0739  1803               	skipnc
  4311  073A  0AE7               	incf	___flmul@temp+1,f
  4312  073B  30FF               	movlw	255
  4313  073C  07E7               	addwf	___flmul@temp+1,f
  4314  073D                     l1822:
  4315  073D  1FE4               	btfss	___flmul@prod+2,7
  4316  073E  2F40               	goto	u2461
  4317  073F  2F41               	goto	u2460
  4318  0740                     u2461:
  4319  0740  2F20               	goto	l1812
  4320  0741                     u2460:
  4321  0741                     l1824:
  4322  0741  01E0               	clrf	___flmul@aexp
  4323  0742                     l1826:
  4324  0742  1FDF               	btfss	___flmul@grs+3,7
  4325  0743  2F45               	goto	u2471
  4326  0744  2F46               	goto	u2470
  4327  0745                     u2471:
  4328  0745  2F62               	goto	l1834
  4329  0746                     u2470:
  4330  0746                     l1828:
  4331  0746  30FF               	movlw	255
  4332  0747  055C               	andwf	___flmul@grs,w
  4333  0748  00D6               	movwf	??___flmul
  4334  0749  30FF               	movlw	255
  4335  074A  055D               	andwf	___flmul@grs+1,w
  4336  074B  00D7               	movwf	??___flmul+1
  4337  074C  30FF               	movlw	255
  4338  074D  055E               	andwf	___flmul@grs+2,w
  4339  074E  00D8               	movwf	??___flmul+2
  4340  074F  307F               	movlw	127
  4341  0750  055F               	andwf	___flmul@grs+3,w
  4342  0751  00D9               	movwf	??___flmul+3
  4343  0752  0859               	movf	??___flmul+3,w
  4344  0753  0458               	iorwf	??___flmul+2,w
  4345  0754  0457               	iorwf	??___flmul+1,w
  4346  0755  0456               	iorwf	??___flmul,w
  4347  0756  1903               	skipnz
  4348  0757  2F59               	goto	u2481
  4349  0758  2F5A               	goto	u2480
  4350  0759                     u2481:
  4351  0759  2F5D               	goto	l645
  4352  075A                     u2480:
  4353  075A                     l1830:
  4354  075A  01E0               	clrf	___flmul@aexp
  4355  075B  0AE0               	incf	___flmul@aexp,f
  4356  075C  2F62               	goto	l1834
  4357  075D                     l645:
  4358  075D  1C62               	btfss	___flmul@prod,0
  4359  075E  2F60               	goto	u2491
  4360  075F  2F61               	goto	u2490
  4361  0760                     u2491:
  4362  0760  2F62               	goto	l1834
  4363  0761                     u2490:
  4364  0761  2F5A               	goto	l1830
  4365  0762                     l1834:
  4366  0762  0860               	movf	___flmul@aexp,w
  4367  0763  1903               	btfsc	3,2
  4368  0764  2F66               	goto	u2501
  4369  0765  2F67               	goto	u2500
  4370  0766                     u2501:
  4371  0766  2F98               	goto	l1844
  4372  0767                     u2500:
  4373  0767                     l1836:
  4374  0767  3001               	movlw	1
  4375  0768  07E2               	addwf	___flmul@prod,f
  4376  0769  3000               	movlw	0
  4377  076A  1803               	skipnc
  4378  076B  3001               	movlw	1
  4379  076C  07E3               	addwf	___flmul@prod+1,f
  4380  076D  3000               	movlw	0
  4381  076E  1803               	skipnc
  4382  076F  3001               	movlw	1
  4383  0770  07E4               	addwf	___flmul@prod+2,f
  4384  0771  3000               	movlw	0
  4385  0772  1803               	skipnc
  4386  0773  3001               	movlw	1
  4387  0774  07E5               	addwf	___flmul@prod+3,f
  4388  0775                     l1838:
  4389  0775  1C65               	btfss	___flmul@prod+3,0
  4390  0776  2F78               	goto	u2511
  4391  0777  2F79               	goto	u2510
  4392  0778                     u2511:
  4393  0778  2F98               	goto	l1844
  4394  0779                     u2510:
  4395  0779                     l1840:
  4396  0779  0862               	movf	___flmul@prod,w
  4397  077A  00D6               	movwf	??___flmul
  4398  077B  0863               	movf	___flmul@prod+1,w
  4399  077C  00D7               	movwf	??___flmul+1
  4400  077D  0864               	movf	___flmul@prod+2,w
  4401  077E  00D8               	movwf	??___flmul+2
  4402  077F  0865               	movf	___flmul@prod+3,w
  4403  0780  00D9               	movwf	??___flmul+3
  4404  0781  3001               	movlw	1
  4405  0782  00DA               	movwf	??___flmul+4
  4406  0783                     u2525:
  4407  0783  0D59               	rlf	??___flmul+3,w
  4408  0784  0CD9               	rrf	??___flmul+3,f
  4409  0785  0CD8               	rrf	??___flmul+2,f
  4410  0786  0CD7               	rrf	??___flmul+1,f
  4411  0787  0CD6               	rrf	??___flmul,f
  4412  0788                     u2520:
  4413  0788  0BDA               	decfsz	??___flmul+4,f
  4414  0789  2F83               	goto	u2525
  4415  078A  0859               	movf	??___flmul+3,w
  4416  078B  00E5               	movwf	___flmul@prod+3
  4417  078C  0858               	movf	??___flmul+2,w
  4418  078D  00E4               	movwf	___flmul@prod+2
  4419  078E  0857               	movf	??___flmul+1,w
  4420  078F  00E3               	movwf	___flmul@prod+1
  4421  0790  0856               	movf	??___flmul,w
  4422  0791  00E2               	movwf	___flmul@prod
  4423  0792                     l1842:
  4424  0792  3001               	movlw	1
  4425  0793  07E6               	addwf	___flmul@temp,f
  4426  0794  1803               	skipnc
  4427  0795  0AE7               	incf	___flmul@temp+1,f
  4428  0796  3000               	movlw	0
  4429  0797  07E7               	addwf	___flmul@temp+1,f
  4430  0798                     l1844:
  4431  0798  0867               	movf	___flmul@temp+1,w
  4432  0799  3A80               	xorlw	128
  4433  079A  00FF               	movwf	btemp+1
  4434  079B  3080               	movlw	128
  4435  079C  027F               	subwf	btemp+1,w
  4436  079D  1D03               	skipz
  4437  079E  2FA1               	goto	u2535
  4438  079F  30FF               	movlw	255
  4439  07A0  0266               	subwf	___flmul@temp,w
  4440  07A1                     u2535:
  4441  07A1  1C03               	skipc
  4442  07A2  2FA4               	goto	u2531
  4443  07A3  2FA5               	goto	u2530
  4444  07A4                     u2531:
  4445  07A4  2FB0               	goto	l1848
  4446  07A5                     u2530:
  4447  07A5                     l1846:
  4448  07A5  307F               	movlw	127
  4449  07A6  1283               	bcf	3,5	;RP0=0, select bank0
  4450  07A7  1303               	bcf	3,6	;RP1=0, select bank0
  4451  07A8  00E5               	movwf	___flmul@prod+3
  4452  07A9  3080               	movlw	128
  4453  07AA  00E4               	movwf	___flmul@prod+2
  4454  07AB  3000               	movlw	0
  4455  07AC  00E3               	movwf	___flmul@prod+1
  4456  07AD  3000               	movlw	0
  4457  07AE  00E2               	movwf	___flmul@prod
  4458  07AF  2FE5               	goto	l651
  4459  07B0                     l1848:
  4460  07B0  1283               	bcf	3,5	;RP0=0, select bank0
  4461  07B1  1303               	bcf	3,6	;RP1=0, select bank0
  4462  07B2  0867               	movf	___flmul@temp+1,w
  4463  07B3  3A80               	xorlw	128
  4464  07B4  00FF               	movwf	btemp+1
  4465  07B5  3080               	movlw	128
  4466  07B6  027F               	subwf	btemp+1,w
  4467  07B7  1D03               	skipz
  4468  07B8  2FBB               	goto	u2545
  4469  07B9  3001               	movlw	1
  4470  07BA  0266               	subwf	___flmul@temp,w
  4471  07BB                     u2545:
  4472  07BB  1803               	skipnc
  4473  07BC  2FBE               	goto	u2541
  4474  07BD  2FBF               	goto	u2540
  4475  07BE                     u2541:
  4476  07BE  2FCB               	goto	l1854
  4477  07BF                     u2540:
  4478  07BF                     l1850:
  4479  07BF  3000               	movlw	0
  4480  07C0  1283               	bcf	3,5	;RP0=0, select bank0
  4481  07C1  1303               	bcf	3,6	;RP1=0, select bank0
  4482  07C2  00E5               	movwf	___flmul@prod+3
  4483  07C3  3000               	movlw	0
  4484  07C4  00E4               	movwf	___flmul@prod+2
  4485  07C5  3000               	movlw	0
  4486  07C6  00E3               	movwf	___flmul@prod+1
  4487  07C7  3000               	movlw	0
  4488  07C8  00E2               	movwf	___flmul@prod
  4489  07C9                     l1852:
  4490  07C9  01DB               	clrf	___flmul@sign
  4491  07CA  2FE5               	goto	l651
  4492  07CB                     l1854:
  4493  07CB  1283               	bcf	3,5	;RP0=0, select bank0
  4494  07CC  1303               	bcf	3,6	;RP1=0, select bank0
  4495  07CD  0866               	movf	___flmul@temp,w
  4496  07CE  00D6               	movwf	??___flmul
  4497  07CF  0856               	movf	??___flmul,w
  4498  07D0  00E1               	movwf	___flmul@bexp
  4499  07D1  30FF               	movlw	255
  4500  07D2  05E2               	andwf	___flmul@prod,f
  4501  07D3  30FF               	movlw	255
  4502  07D4  05E3               	andwf	___flmul@prod+1,f
  4503  07D5  307F               	movlw	127
  4504  07D6  05E4               	andwf	___flmul@prod+2,f
  4505  07D7  3000               	movlw	0
  4506  07D8  05E5               	andwf	___flmul@prod+3,f
  4507  07D9                     l1856:
  4508  07D9  1C61               	btfss	___flmul@bexp,0
  4509  07DA  2FDC               	goto	u2551
  4510  07DB  2FDD               	goto	u2550
  4511  07DC                     u2551:
  4512  07DC  2FDE               	goto	l1860
  4513  07DD                     u2550:
  4514  07DD                     l1858:
  4515  07DD  17E4               	bsf	___flmul@prod+2,7
  4516  07DE                     l1860:
  4517  07DE  0861               	movf	___flmul@bexp,w
  4518  07DF  00D6               	movwf	??___flmul
  4519  07E0  1003               	clrc
  4520  07E1  0C56               	rrf	??___flmul,w
  4521  07E2  00D7               	movwf	??___flmul+1
  4522  07E3  0857               	movf	??___flmul+1,w
  4523  07E4  00E5               	movwf	___flmul@prod+3
  4524  07E5                     l651:
  4525  07E5  085B               	movf	___flmul@sign,w
  4526  07E6  00D6               	movwf	??___flmul
  4527  07E7  0856               	movf	??___flmul,w
  4528  07E8  04E5               	iorwf	___flmul@prod+3,f
  4529  07E9                     l1862:
  4530  07E9  0865               	movf	___flmul@prod+3,w
  4531  07EA  00D1               	movwf	?___flmul+3
  4532  07EB  0864               	movf	___flmul@prod+2,w
  4533  07EC  00D0               	movwf	?___flmul+2
  4534  07ED  0863               	movf	___flmul@prod+1,w
  4535  07EE  00CF               	movwf	?___flmul+1
  4536  07EF  0862               	movf	___flmul@prod,w
  4537  07F0  00CE               	movwf	?___flmul
  4538  07F1                     l639:
  4539  07F1  0008               	return
  4540  07F2                     __end_of___flmul:
  4541                           
  4542                           	psect	text15
  4543  0ABB                     __ptext15:	
  4544 ;; *************** function __Umul8_16 *****************
  4545 ;; Defined at:
  4546 ;;		line 4 in file "C:\Program Files\Microchip\xc8\v2.32\pic\sources\c90\common\Umul8_16.c"
  4547 ;; Parameters:    Size  Location     Type
  4548 ;;  multiplier      1    wreg     unsigned char 
  4549 ;;  multiplicand    1    0[COMMON] unsigned char 
  4550 ;; Auto vars:     Size  Location     Type
  4551 ;;  multiplier      1    8[COMMON] unsigned char 
  4552 ;;  word_mpld       2    6[COMMON] unsigned int 
  4553 ;;  product         2    4[COMMON] unsigned int 
  4554 ;; Return value:  Size  Location     Type
  4555 ;;                  2    0[COMMON] unsigned int 
  4556 ;; Registers used:
  4557 ;;		wreg, status,2, status,0
  4558 ;; Tracked objects:
  4559 ;;		On entry : 0/0
  4560 ;;		On exit  : 0/0
  4561 ;;		Unchanged: 0/0
  4562 ;; Data sizes:     COMMON   BANK0   BANK1   BANK3   BANK2
  4563 ;;      Params:         2       0       0       0       0
  4564 ;;      Locals:         5       0       0       0       0
  4565 ;;      Temps:          2       0       0       0       0
  4566 ;;      Totals:         9       0       0       0       0
  4567 ;;Total ram usage:        9 bytes
  4568 ;; Hardware stack levels used: 1
  4569 ;; This function calls:
  4570 ;;		Nothing
  4571 ;; This function is called by:
  4572 ;;		___flmul
  4573 ;; This function uses a non-reentrant model
  4574 ;;
  4575                           
  4576                           
  4577                           ;psect for function __Umul8_16
  4578  0ABB                     __Umul8_16:
  4579                           
  4580                           ;incstack = 0
  4581                           ; Regs used in __Umul8_16: [wreg+status,2+status,0]
  4582                           ;__Umul8_16@multiplier stored from wreg
  4583  0ABB  00F8               	movwf	__Umul8_16@multiplier
  4584  0ABC                     l1484:
  4585  0ABC  01F4               	clrf	__Umul8_16@product
  4586  0ABD  01F5               	clrf	__Umul8_16@product+1
  4587  0ABE                     l1486:
  4588  0ABE  0870               	movf	__Umul8_16@multiplicand,w
  4589  0ABF  00F2               	movwf	??__Umul8_16
  4590  0AC0  01F3               	clrf	??__Umul8_16+1
  4591  0AC1  0872               	movf	??__Umul8_16,w
  4592  0AC2  00F6               	movwf	__Umul8_16@word_mpld
  4593  0AC3  0873               	movf	??__Umul8_16+1,w
  4594  0AC4  00F7               	movwf	__Umul8_16@word_mpld+1
  4595  0AC5                     l1488:
  4596  0AC5  1C78               	btfss	__Umul8_16@multiplier,0
  4597  0AC6  2AC8               	goto	u1621
  4598  0AC7  2AC9               	goto	u1620
  4599  0AC8                     u1621:
  4600  0AC8  2ACF               	goto	l658
  4601  0AC9                     u1620:
  4602  0AC9                     l1490:
  4603  0AC9  0876               	movf	__Umul8_16@word_mpld,w
  4604  0ACA  07F4               	addwf	__Umul8_16@product,f
  4605  0ACB  1803               	skipnc
  4606  0ACC  0AF5               	incf	__Umul8_16@product+1,f
  4607  0ACD  0877               	movf	__Umul8_16@word_mpld+1,w
  4608  0ACE  07F5               	addwf	__Umul8_16@product+1,f
  4609  0ACF                     l658:
  4610  0ACF  3001               	movlw	1
  4611  0AD0                     u1635:
  4612  0AD0  1003               	clrc
  4613  0AD1  0DF6               	rlf	__Umul8_16@word_mpld,f
  4614  0AD2  0DF7               	rlf	__Umul8_16@word_mpld+1,f
  4615  0AD3  3EFF               	addlw	-1
  4616  0AD4  1D03               	skipz
  4617  0AD5  2AD0               	goto	u1635
  4618  0AD6  1003               	clrc
  4619  0AD7  0CF8               	rrf	__Umul8_16@multiplier,f
  4620  0AD8                     l1492:
  4621  0AD8  0878               	movf	__Umul8_16@multiplier,w
  4622  0AD9  1D03               	btfss	3,2
  4623  0ADA  2ADC               	goto	u1641
  4624  0ADB  2ADD               	goto	u1640
  4625  0ADC                     u1641:
  4626  0ADC  2AC5               	goto	l1488
  4627  0ADD                     u1640:
  4628  0ADD                     l1494:
  4629  0ADD  0875               	movf	__Umul8_16@product+1,w
  4630  0ADE  00F1               	movwf	?__Umul8_16+1
  4631  0ADF  0874               	movf	__Umul8_16@product,w
  4632  0AE0  00F0               	movwf	?__Umul8_16
  4633  0AE1                     l660:
  4634  0AE1  0008               	return
  4635  0AE2                     __end_of__Umul8_16:
  4636                           
  4637                           	psect	text16
  4638  02B4                     __ptext16:	
  4639 ;; *************** function ___fldiv *****************
  4640 ;; Defined at:
  4641 ;;		line 8 in file "C:\Program Files\Microchip\xc8\v2.32\pic\sources\c90\common\sprcdiv.c"
  4642 ;; Parameters:    Size  Location     Type
  4643 ;;  a               4   20[BANK0 ] unsigned int 
  4644 ;;  b               4   24[BANK0 ] unsigned int 
  4645 ;; Auto vars:     Size  Location     Type
  4646 ;;  grs             4   40[BANK0 ] unsigned long 
  4647 ;;  rem             4   33[BANK0 ] unsigned long 
  4648 ;;  new_exp         2   38[BANK0 ] int 
  4649 ;;  aexp            1   45[BANK0 ] unsigned char 
  4650 ;;  bexp            1   44[BANK0 ] unsigned char 
  4651 ;;  sign            1   37[BANK0 ] unsigned char 
  4652 ;; Return value:  Size  Location     Type
  4653 ;;                  4   20[BANK0 ] unsigned char 
  4654 ;; Registers used:
  4655 ;;		wreg, status,2, status,0, btemp+1
  4656 ;; Tracked objects:
  4657 ;;		On entry : 0/0
  4658 ;;		On exit  : 0/0
  4659 ;;		Unchanged: 0/0
  4660 ;; Data sizes:     COMMON   BANK0   BANK1   BANK3   BANK2
  4661 ;;      Params:         0       8       0       0       0
  4662 ;;      Locals:         0      13       0       0       0
  4663 ;;      Temps:          0       5       0       0       0
  4664 ;;      Totals:         0      26       0       0       0
  4665 ;;Total ram usage:       26 bytes
  4666 ;; Hardware stack levels used: 1
  4667 ;; This function calls:
  4668 ;;		Nothing
  4669 ;; This function is called by:
  4670 ;;		_PWM1_Duty
  4671 ;;		_PWM2_Duty
  4672 ;; This function uses a non-reentrant model
  4673 ;;
  4674                           
  4675                           
  4676                           ;psect for function ___fldiv
  4677  02B4                     ___fldiv:
  4678  02B4                     l1584:	
  4679                           ;incstack = 0
  4680                           ; Regs used in ___fldiv: [wreg+status,2+status,0+btemp+1]
  4681                           
  4682  02B4  1283               	bcf	3,5	;RP0=0, select bank0
  4683  02B5  1303               	bcf	3,6	;RP1=0, select bank0
  4684  02B6  083B               	movf	___fldiv@b+3,w
  4685  02B7  3980               	andlw	128
  4686  02B8  00BC               	movwf	??___fldiv
  4687  02B9  083C               	movf	??___fldiv,w
  4688  02BA  00C5               	movwf	___fldiv@sign
  4689  02BB                     l1586:
  4690  02BB  083B               	movf	___fldiv@b+3,w
  4691  02BC  00BC               	movwf	??___fldiv
  4692  02BD  073C               	addwf	??___fldiv,w
  4693  02BE  00BD               	movwf	??___fldiv+1
  4694  02BF  083D               	movf	??___fldiv+1,w
  4695  02C0  00CC               	movwf	___fldiv@bexp
  4696  02C1                     l1588:
  4697  02C1  1FBA               	btfss	___fldiv@b+2,7
  4698  02C2  2AC4               	goto	u1901
  4699  02C3  2AC5               	goto	u1900
  4700  02C4                     u1901:
  4701  02C4  2AC6               	goto	l1592
  4702  02C5                     u1900:
  4703  02C5                     l1590:
  4704  02C5  144C               	bsf	___fldiv@bexp,0
  4705  02C6                     l1592:
  4706  02C6  084C               	movf	___fldiv@bexp,w
  4707  02C7  1903               	btfsc	3,2
  4708  02C8  2ACA               	goto	u1911
  4709  02C9  2ACB               	goto	u1910
  4710  02CA                     u1911:
  4711  02CA  2ADB               	goto	l1602
  4712  02CB                     u1910:
  4713  02CB                     l1594:
  4714  02CB  0A4C               	incf	___fldiv@bexp,w
  4715  02CC  1D03               	btfss	3,2
  4716  02CD  2ACF               	goto	u1921
  4717  02CE  2AD0               	goto	u1920
  4718  02CF                     u1921:
  4719  02CF  2AD8               	goto	l1598
  4720  02D0                     u1920:
  4721  02D0                     l1596:
  4722  02D0  3000               	movlw	0
  4723  02D1  00BB               	movwf	___fldiv@b+3
  4724  02D2  3000               	movlw	0
  4725  02D3  00BA               	movwf	___fldiv@b+2
  4726  02D4  3000               	movlw	0
  4727  02D5  00B9               	movwf	___fldiv@b+1
  4728  02D6  3000               	movlw	0
  4729  02D7  00B8               	movwf	___fldiv@b
  4730  02D8                     l1598:
  4731  02D8  17BA               	bsf	___fldiv@b+2,7
  4732  02D9                     l1600:
  4733  02D9  01BB               	clrf	___fldiv@b+3
  4734  02DA  2AE3               	goto	l1604
  4735  02DB                     l1602:
  4736  02DB  3000               	movlw	0
  4737  02DC  00BB               	movwf	___fldiv@b+3
  4738  02DD  3000               	movlw	0
  4739  02DE  00BA               	movwf	___fldiv@b+2
  4740  02DF  3000               	movlw	0
  4741  02E0  00B9               	movwf	___fldiv@b+1
  4742  02E1  3000               	movlw	0
  4743  02E2  00B8               	movwf	___fldiv@b
  4744  02E3                     l1604:
  4745  02E3  0837               	movf	___fldiv@a+3,w
  4746  02E4  3980               	andlw	128
  4747  02E5  00BC               	movwf	??___fldiv
  4748  02E6  083C               	movf	??___fldiv,w
  4749  02E7  06C5               	xorwf	___fldiv@sign,f
  4750  02E8                     l1606:
  4751  02E8  0837               	movf	___fldiv@a+3,w
  4752  02E9  00BC               	movwf	??___fldiv
  4753  02EA  073C               	addwf	??___fldiv,w
  4754  02EB  00BD               	movwf	??___fldiv+1
  4755  02EC  083D               	movf	??___fldiv+1,w
  4756  02ED  00CD               	movwf	___fldiv@aexp
  4757  02EE                     l1608:
  4758  02EE  1FB6               	btfss	___fldiv@a+2,7
  4759  02EF  2AF1               	goto	u1931
  4760  02F0  2AF2               	goto	u1930
  4761  02F1                     u1931:
  4762  02F1  2AF3               	goto	l1612
  4763  02F2                     u1930:
  4764  02F2                     l1610:
  4765  02F2  144D               	bsf	___fldiv@aexp,0
  4766  02F3                     l1612:
  4767  02F3  084D               	movf	___fldiv@aexp,w
  4768  02F4  1903               	btfsc	3,2
  4769  02F5  2AF7               	goto	u1941
  4770  02F6  2AF8               	goto	u1940
  4771  02F7                     u1941:
  4772  02F7  2B08               	goto	l1622
  4773  02F8                     u1940:
  4774  02F8                     l1614:
  4775  02F8  0A4D               	incf	___fldiv@aexp,w
  4776  02F9  1D03               	btfss	3,2
  4777  02FA  2AFC               	goto	u1951
  4778  02FB  2AFD               	goto	u1950
  4779  02FC                     u1951:
  4780  02FC  2B05               	goto	l1618
  4781  02FD                     u1950:
  4782  02FD                     l1616:
  4783  02FD  3000               	movlw	0
  4784  02FE  00B7               	movwf	___fldiv@a+3
  4785  02FF  3000               	movlw	0
  4786  0300  00B6               	movwf	___fldiv@a+2
  4787  0301  3000               	movlw	0
  4788  0302  00B5               	movwf	___fldiv@a+1
  4789  0303  3000               	movlw	0
  4790  0304  00B4               	movwf	___fldiv@a
  4791  0305                     l1618:
  4792  0305  17B6               	bsf	___fldiv@a+2,7
  4793  0306                     l1620:
  4794  0306  01B7               	clrf	___fldiv@a+3
  4795  0307  2B10               	goto	l599
  4796  0308                     l1622:
  4797  0308  3000               	movlw	0
  4798  0309  00B7               	movwf	___fldiv@a+3
  4799  030A  3000               	movlw	0
  4800  030B  00B6               	movwf	___fldiv@a+2
  4801  030C  3000               	movlw	0
  4802  030D  00B5               	movwf	___fldiv@a+1
  4803  030E  3000               	movlw	0
  4804  030F  00B4               	movwf	___fldiv@a
  4805  0310                     l599:
  4806  0310  0837               	movf	___fldiv@a+3,w
  4807  0311  0436               	iorwf	___fldiv@a+2,w
  4808  0312  0435               	iorwf	___fldiv@a+1,w
  4809  0313  0434               	iorwf	___fldiv@a,w
  4810  0314  1D03               	skipz
  4811  0315  2B17               	goto	u1961
  4812  0316  2B18               	goto	u1960
  4813  0317                     u1961:
  4814  0317  2B31               	goto	l1632
  4815  0318                     u1960:
  4816  0318                     l1624:
  4817  0318  3000               	movlw	0
  4818  0319  00BB               	movwf	___fldiv@b+3
  4819  031A  3000               	movlw	0
  4820  031B  00BA               	movwf	___fldiv@b+2
  4821  031C  3000               	movlw	0
  4822  031D  00B9               	movwf	___fldiv@b+1
  4823  031E  3000               	movlw	0
  4824  031F  00B8               	movwf	___fldiv@b
  4825  0320  3080               	movlw	128
  4826  0321  04BA               	iorwf	___fldiv@b+2,f
  4827  0322  307F               	movlw	127
  4828  0323  04BB               	iorwf	___fldiv@b+3,f
  4829  0324                     l1626:
  4830  0324  0845               	movf	___fldiv@sign,w
  4831  0325  00BC               	movwf	??___fldiv
  4832  0326  083C               	movf	??___fldiv,w
  4833  0327  04BB               	iorwf	___fldiv@b+3,f
  4834  0328                     l1628:
  4835  0328  083B               	movf	___fldiv@b+3,w
  4836  0329  00B7               	movwf	?___fldiv+3
  4837  032A  083A               	movf	___fldiv@b+2,w
  4838  032B  00B6               	movwf	?___fldiv+2
  4839  032C  0839               	movf	___fldiv@b+1,w
  4840  032D  00B5               	movwf	?___fldiv+1
  4841  032E  0838               	movf	___fldiv@b,w
  4842  032F  00B4               	movwf	?___fldiv
  4843  0330  2C90               	goto	l601
  4844  0331                     l1632:
  4845  0331  084C               	movf	___fldiv@bexp,w
  4846  0332  1D03               	btfss	3,2
  4847  0333  2B35               	goto	u1971
  4848  0334  2B36               	goto	u1970
  4849  0335                     u1971:
  4850  0335  2B3F               	goto	l1638
  4851  0336                     u1970:
  4852  0336                     l1634:
  4853  0336  3000               	movlw	0
  4854  0337  00B7               	movwf	?___fldiv+3
  4855  0338  3000               	movlw	0
  4856  0339  00B6               	movwf	?___fldiv+2
  4857  033A  3000               	movlw	0
  4858  033B  00B5               	movwf	?___fldiv+1
  4859  033C  3000               	movlw	0
  4860  033D  00B4               	movwf	?___fldiv
  4861  033E  2C90               	goto	l601
  4862  033F                     l1638:
  4863  033F  084C               	movf	___fldiv@bexp,w
  4864  0340  00BC               	movwf	??___fldiv
  4865  0341  01BD               	clrf	??___fldiv+1
  4866  0342  083D               	movf	??___fldiv+1,w
  4867  0343  00BF               	movwf	??___fldiv+3
  4868  0344  084D               	movf	___fldiv@aexp,w
  4869  0345  023C               	subwf	??___fldiv,w
  4870  0346  00BE               	movwf	??___fldiv+2
  4871  0347  1C03               	skipc
  4872  0348  03BF               	decf	??___fldiv+3,f
  4873  0349  083E               	movf	??___fldiv+2,w
  4874  034A  3E7F               	addlw	127
  4875  034B  00C6               	movwf	___fldiv@new_exp
  4876  034C  083F               	movf	??___fldiv+3,w
  4877  034D  1803               	skipnc
  4878  034E  3E01               	addlw	1
  4879  034F  3E00               	addlw	0
  4880  0350  00C7               	movwf	___fldiv@new_exp+1
  4881  0351                     l1640:
  4882  0351  083B               	movf	___fldiv@b+3,w
  4883  0352  00C4               	movwf	___fldiv@rem+3
  4884  0353  083A               	movf	___fldiv@b+2,w
  4885  0354  00C3               	movwf	___fldiv@rem+2
  4886  0355  0839               	movf	___fldiv@b+1,w
  4887  0356  00C2               	movwf	___fldiv@rem+1
  4888  0357  0838               	movf	___fldiv@b,w
  4889  0358  00C1               	movwf	___fldiv@rem
  4890  0359                     l1642:
  4891  0359  3000               	movlw	0
  4892  035A  00BB               	movwf	___fldiv@b+3
  4893  035B  3000               	movlw	0
  4894  035C  00BA               	movwf	___fldiv@b+2
  4895  035D  3000               	movlw	0
  4896  035E  00B9               	movwf	___fldiv@b+1
  4897  035F  3000               	movlw	0
  4898  0360  00B8               	movwf	___fldiv@b
  4899  0361                     l1644:
  4900  0361  3000               	movlw	0
  4901  0362  00CB               	movwf	___fldiv@grs+3
  4902  0363  3000               	movlw	0
  4903  0364  00CA               	movwf	___fldiv@grs+2
  4904  0365  3000               	movlw	0
  4905  0366  00C9               	movwf	___fldiv@grs+1
  4906  0367  3000               	movlw	0
  4907  0368  00C8               	movwf	___fldiv@grs
  4908  0369                     l1646:
  4909  0369  01CD               	clrf	___fldiv@aexp
  4910  036A  2BB5               	goto	l1666
  4911  036B                     l1648:
  4912  036B  084D               	movf	___fldiv@aexp,w
  4913  036C  1903               	btfsc	3,2
  4914  036D  2B6F               	goto	u1981
  4915  036E  2B70               	goto	u1980
  4916  036F                     u1981:
  4917  036F  2B90               	goto	l1658
  4918  0370                     u1980:
  4919  0370                     l1650:
  4920  0370  3001               	movlw	1
  4921  0371  00BC               	movwf	??___fldiv
  4922  0372                     u1995:
  4923  0372  1003               	clrc
  4924  0373  0DC1               	rlf	___fldiv@rem,f
  4925  0374  0DC2               	rlf	___fldiv@rem+1,f
  4926  0375  0DC3               	rlf	___fldiv@rem+2,f
  4927  0376  0DC4               	rlf	___fldiv@rem+3,f
  4928  0377  0BBC               	decfsz	??___fldiv,f
  4929  0378  2B72               	goto	u1995
  4930  0379  3001               	movlw	1
  4931  037A  00BC               	movwf	??___fldiv
  4932  037B                     u2005:
  4933  037B  1003               	clrc
  4934  037C  0DB8               	rlf	___fldiv@b,f
  4935  037D  0DB9               	rlf	___fldiv@b+1,f
  4936  037E  0DBA               	rlf	___fldiv@b+2,f
  4937  037F  0DBB               	rlf	___fldiv@b+3,f
  4938  0380  0BBC               	decfsz	??___fldiv,f
  4939  0381  2B7B               	goto	u2005
  4940  0382                     l1652:
  4941  0382  1FCB               	btfss	___fldiv@grs+3,7
  4942  0383  2B85               	goto	u2011
  4943  0384  2B86               	goto	u2010
  4944  0385                     u2011:
  4945  0385  2B87               	goto	l1656
  4946  0386                     u2010:
  4947  0386                     l1654:
  4948  0386  1438               	bsf	___fldiv@b,0
  4949  0387                     l1656:
  4950  0387  3001               	movlw	1
  4951  0388  00BC               	movwf	??___fldiv
  4952  0389                     u2025:
  4953  0389  1003               	clrc
  4954  038A  0DC8               	rlf	___fldiv@grs,f
  4955  038B  0DC9               	rlf	___fldiv@grs+1,f
  4956  038C  0DCA               	rlf	___fldiv@grs+2,f
  4957  038D  0DCB               	rlf	___fldiv@grs+3,f
  4958  038E  0BBC               	decfsz	??___fldiv,f
  4959  038F  2B89               	goto	u2025
  4960  0390                     l1658:
  4961  0390  0837               	movf	___fldiv@a+3,w
  4962  0391  0244               	subwf	___fldiv@rem+3,w
  4963  0392  1D03               	skipz
  4964  0393  2B9E               	goto	u2035
  4965  0394  0836               	movf	___fldiv@a+2,w
  4966  0395  0243               	subwf	___fldiv@rem+2,w
  4967  0396  1D03               	skipz
  4968  0397  2B9E               	goto	u2035
  4969  0398  0835               	movf	___fldiv@a+1,w
  4970  0399  0242               	subwf	___fldiv@rem+1,w
  4971  039A  1D03               	skipz
  4972  039B  2B9E               	goto	u2035
  4973  039C  0834               	movf	___fldiv@a,w
  4974  039D  0241               	subwf	___fldiv@rem,w
  4975  039E                     u2035:
  4976  039E  1C03               	skipc
  4977  039F  2BA1               	goto	u2031
  4978  03A0  2BA2               	goto	u2030
  4979  03A1                     u2031:
  4980  03A1  2BB1               	goto	l1664
  4981  03A2                     u2030:
  4982  03A2                     l1660:
  4983  03A2  174B               	bsf	___fldiv@grs+3,6
  4984  03A3                     l1662:
  4985  03A3  0834               	movf	___fldiv@a,w
  4986  03A4  02C1               	subwf	___fldiv@rem,f
  4987  03A5  0835               	movf	___fldiv@a+1,w
  4988  03A6  1C03               	skipc
  4989  03A7  0F35               	incfsz	___fldiv@a+1,w
  4990  03A8  02C2               	subwf	___fldiv@rem+1,f
  4991  03A9  0836               	movf	___fldiv@a+2,w
  4992  03AA  1C03               	skipc
  4993  03AB  0F36               	incfsz	___fldiv@a+2,w
  4994  03AC  02C3               	subwf	___fldiv@rem+2,f
  4995  03AD  0837               	movf	___fldiv@a+3,w
  4996  03AE  1C03               	skipc
  4997  03AF  0F37               	incfsz	___fldiv@a+3,w
  4998  03B0  02C4               	subwf	___fldiv@rem+3,f
  4999  03B1                     l1664:
  5000  03B1  3001               	movlw	1
  5001  03B2  00BC               	movwf	??___fldiv
  5002  03B3  083C               	movf	??___fldiv,w
  5003  03B4  07CD               	addwf	___fldiv@aexp,f
  5004  03B5                     l1666:
  5005  03B5  301A               	movlw	26
  5006  03B6  024D               	subwf	___fldiv@aexp,w
  5007  03B7  1C03               	skipc
  5008  03B8  2BBA               	goto	u2041
  5009  03B9  2BBB               	goto	u2040
  5010  03BA                     u2041:
  5011  03BA  2B6B               	goto	l1648
  5012  03BB                     u2040:
  5013  03BB                     l1668:
  5014  03BB  0844               	movf	___fldiv@rem+3,w
  5015  03BC  0443               	iorwf	___fldiv@rem+2,w
  5016  03BD  0442               	iorwf	___fldiv@rem+1,w
  5017  03BE  0441               	iorwf	___fldiv@rem,w
  5018  03BF  1903               	skipnz
  5019  03C0  2BC2               	goto	u2051
  5020  03C1  2BC3               	goto	u2050
  5021  03C2                     u2051:
  5022  03C2  2BE2               	goto	l1682
  5023  03C3                     u2050:
  5024  03C3                     l1670:
  5025  03C3  1448               	bsf	___fldiv@grs,0
  5026  03C4  2BE2               	goto	l1682
  5027  03C5                     l1672:
  5028  03C5  3001               	movlw	1
  5029  03C6  00BC               	movwf	??___fldiv
  5030  03C7                     u2065:
  5031  03C7  1003               	clrc
  5032  03C8  0DB8               	rlf	___fldiv@b,f
  5033  03C9  0DB9               	rlf	___fldiv@b+1,f
  5034  03CA  0DBA               	rlf	___fldiv@b+2,f
  5035  03CB  0DBB               	rlf	___fldiv@b+3,f
  5036  03CC  0BBC               	decfsz	??___fldiv,f
  5037  03CD  2BC7               	goto	u2065
  5038  03CE                     l1674:
  5039  03CE  1FCB               	btfss	___fldiv@grs+3,7
  5040  03CF  2BD1               	goto	u2071
  5041  03D0  2BD2               	goto	u2070
  5042  03D1                     u2071:
  5043  03D1  2BD3               	goto	l1678
  5044  03D2                     u2070:
  5045  03D2                     l1676:
  5046  03D2  1438               	bsf	___fldiv@b,0
  5047  03D3                     l1678:
  5048  03D3  3001               	movlw	1
  5049  03D4  00BC               	movwf	??___fldiv
  5050  03D5                     u2085:
  5051  03D5  1003               	clrc
  5052  03D6  0DC8               	rlf	___fldiv@grs,f
  5053  03D7  0DC9               	rlf	___fldiv@grs+1,f
  5054  03D8  0DCA               	rlf	___fldiv@grs+2,f
  5055  03D9  0DCB               	rlf	___fldiv@grs+3,f
  5056  03DA  0BBC               	decfsz	??___fldiv,f
  5057  03DB  2BD5               	goto	u2085
  5058  03DC                     l1680:
  5059  03DC  30FF               	movlw	255
  5060  03DD  07C6               	addwf	___fldiv@new_exp,f
  5061  03DE  1803               	skipnc
  5062  03DF  0AC7               	incf	___fldiv@new_exp+1,f
  5063  03E0  30FF               	movlw	255
  5064  03E1  07C7               	addwf	___fldiv@new_exp+1,f
  5065  03E2                     l1682:
  5066  03E2  1FBA               	btfss	___fldiv@b+2,7
  5067  03E3  2BE5               	goto	u2091
  5068  03E4  2BE6               	goto	u2090
  5069  03E5                     u2091:
  5070  03E5  2BC5               	goto	l1672
  5071  03E6                     u2090:
  5072  03E6                     l1684:
  5073  03E6  01CD               	clrf	___fldiv@aexp
  5074  03E7                     l1686:
  5075  03E7  1FCB               	btfss	___fldiv@grs+3,7
  5076  03E8  2BEA               	goto	u2101
  5077  03E9  2BEB               	goto	u2100
  5078  03EA                     u2101:
  5079  03EA  2C07               	goto	l1694
  5080  03EB                     u2100:
  5081  03EB                     l1688:
  5082  03EB  30FF               	movlw	255
  5083  03EC  0548               	andwf	___fldiv@grs,w
  5084  03ED  00BC               	movwf	??___fldiv
  5085  03EE  30FF               	movlw	255
  5086  03EF  0549               	andwf	___fldiv@grs+1,w
  5087  03F0  00BD               	movwf	??___fldiv+1
  5088  03F1  30FF               	movlw	255
  5089  03F2  054A               	andwf	___fldiv@grs+2,w
  5090  03F3  00BE               	movwf	??___fldiv+2
  5091  03F4  307F               	movlw	127
  5092  03F5  054B               	andwf	___fldiv@grs+3,w
  5093  03F6  00BF               	movwf	??___fldiv+3
  5094  03F7  083F               	movf	??___fldiv+3,w
  5095  03F8  043E               	iorwf	??___fldiv+2,w
  5096  03F9  043D               	iorwf	??___fldiv+1,w
  5097  03FA  043C               	iorwf	??___fldiv,w
  5098  03FB  1903               	skipnz
  5099  03FC  2BFE               	goto	u2111
  5100  03FD  2BFF               	goto	u2110
  5101  03FE                     u2111:
  5102  03FE  2C02               	goto	l615
  5103  03FF                     u2110:
  5104  03FF                     l1690:
  5105  03FF  01CD               	clrf	___fldiv@aexp
  5106  0400  0ACD               	incf	___fldiv@aexp,f
  5107  0401  2C07               	goto	l1694
  5108  0402                     l615:
  5109  0402  1C38               	btfss	___fldiv@b,0
  5110  0403  2C05               	goto	u2121
  5111  0404  2C06               	goto	u2120
  5112  0405                     u2121:
  5113  0405  2C07               	goto	l1694
  5114  0406                     u2120:
  5115  0406  2BFF               	goto	l1690
  5116  0407                     l1694:
  5117  0407  084D               	movf	___fldiv@aexp,w
  5118  0408  1903               	btfsc	3,2
  5119  0409  2C0B               	goto	u2131
  5120  040A  2C0C               	goto	u2130
  5121  040B                     u2131:
  5122  040B  2C3D               	goto	l1704
  5123  040C                     u2130:
  5124  040C                     l1696:
  5125  040C  3001               	movlw	1
  5126  040D  07B8               	addwf	___fldiv@b,f
  5127  040E  3000               	movlw	0
  5128  040F  1803               	skipnc
  5129  0410  3001               	movlw	1
  5130  0411  07B9               	addwf	___fldiv@b+1,f
  5131  0412  3000               	movlw	0
  5132  0413  1803               	skipnc
  5133  0414  3001               	movlw	1
  5134  0415  07BA               	addwf	___fldiv@b+2,f
  5135  0416  3000               	movlw	0
  5136  0417  1803               	skipnc
  5137  0418  3001               	movlw	1
  5138  0419  07BB               	addwf	___fldiv@b+3,f
  5139  041A                     l1698:
  5140  041A  1C3B               	btfss	___fldiv@b+3,0
  5141  041B  2C1D               	goto	u2141
  5142  041C  2C1E               	goto	u2140
  5143  041D                     u2141:
  5144  041D  2C3D               	goto	l1704
  5145  041E                     u2140:
  5146  041E                     l1700:
  5147  041E  0838               	movf	___fldiv@b,w
  5148  041F  00BC               	movwf	??___fldiv
  5149  0420  0839               	movf	___fldiv@b+1,w
  5150  0421  00BD               	movwf	??___fldiv+1
  5151  0422  083A               	movf	___fldiv@b+2,w
  5152  0423  00BE               	movwf	??___fldiv+2
  5153  0424  083B               	movf	___fldiv@b+3,w
  5154  0425  00BF               	movwf	??___fldiv+3
  5155  0426  3001               	movlw	1
  5156  0427  00C0               	movwf	??___fldiv+4
  5157  0428                     u2155:
  5158  0428  0D3F               	rlf	??___fldiv+3,w
  5159  0429  0CBF               	rrf	??___fldiv+3,f
  5160  042A  0CBE               	rrf	??___fldiv+2,f
  5161  042B  0CBD               	rrf	??___fldiv+1,f
  5162  042C  0CBC               	rrf	??___fldiv,f
  5163  042D                     u2150:
  5164  042D  0BC0               	decfsz	??___fldiv+4,f
  5165  042E  2C28               	goto	u2155
  5166  042F  083F               	movf	??___fldiv+3,w
  5167  0430  00BB               	movwf	___fldiv@b+3
  5168  0431  083E               	movf	??___fldiv+2,w
  5169  0432  00BA               	movwf	___fldiv@b+2
  5170  0433  083D               	movf	??___fldiv+1,w
  5171  0434  00B9               	movwf	___fldiv@b+1
  5172  0435  083C               	movf	??___fldiv,w
  5173  0436  00B8               	movwf	___fldiv@b
  5174  0437                     l1702:
  5175  0437  3001               	movlw	1
  5176  0438  07C6               	addwf	___fldiv@new_exp,f
  5177  0439  1803               	skipnc
  5178  043A  0AC7               	incf	___fldiv@new_exp+1,f
  5179  043B  3000               	movlw	0
  5180  043C  07C7               	addwf	___fldiv@new_exp+1,f
  5181  043D                     l1704:
  5182  043D  0847               	movf	___fldiv@new_exp+1,w
  5183  043E  3A80               	xorlw	128
  5184  043F  00FF               	movwf	btemp+1
  5185  0440  3080               	movlw	128
  5186  0441  027F               	subwf	btemp+1,w
  5187  0442  1D03               	skipz
  5188  0443  2C46               	goto	u2165
  5189  0444  30FF               	movlw	255
  5190  0445  0246               	subwf	___fldiv@new_exp,w
  5191  0446                     u2165:
  5192  0446  1C03               	skipc
  5193  0447  2C49               	goto	u2161
  5194  0448  2C4A               	goto	u2160
  5195  0449                     u2161:
  5196  0449  2C58               	goto	l1708
  5197  044A                     u2160:
  5198  044A                     l1706:
  5199  044A  30FF               	movlw	255
  5200  044B  1283               	bcf	3,5	;RP0=0, select bank0
  5201  044C  1303               	bcf	3,6	;RP1=0, select bank0
  5202  044D  00C6               	movwf	___fldiv@new_exp
  5203  044E  3000               	movlw	0
  5204  044F  00C7               	movwf	___fldiv@new_exp+1
  5205  0450  3000               	movlw	0
  5206  0451  00BB               	movwf	___fldiv@b+3
  5207  0452  3000               	movlw	0
  5208  0453  00BA               	movwf	___fldiv@b+2
  5209  0454  3000               	movlw	0
  5210  0455  00B9               	movwf	___fldiv@b+1
  5211  0456  3000               	movlw	0
  5212  0457  00B8               	movwf	___fldiv@b
  5213  0458                     l1708:
  5214  0458  1283               	bcf	3,5	;RP0=0, select bank0
  5215  0459  1303               	bcf	3,6	;RP1=0, select bank0
  5216  045A  0847               	movf	___fldiv@new_exp+1,w
  5217  045B  3A80               	xorlw	128
  5218  045C  00FF               	movwf	btemp+1
  5219  045D  3080               	movlw	128
  5220  045E  027F               	subwf	btemp+1,w
  5221  045F  1D03               	skipz
  5222  0460  2C63               	goto	u2175
  5223  0461  3001               	movlw	1
  5224  0462  0246               	subwf	___fldiv@new_exp,w
  5225  0463                     u2175:
  5226  0463  1803               	skipnc
  5227  0464  2C66               	goto	u2171
  5228  0465  2C67               	goto	u2170
  5229  0466                     u2171:
  5230  0466  2C74               	goto	l621
  5231  0467                     u2170:
  5232  0467                     l1710:
  5233  0467  1283               	bcf	3,5	;RP0=0, select bank0
  5234  0468  1303               	bcf	3,6	;RP1=0, select bank0
  5235  0469  01C6               	clrf	___fldiv@new_exp
  5236  046A  01C7               	clrf	___fldiv@new_exp+1
  5237  046B                     l1712:
  5238  046B  3000               	movlw	0
  5239  046C  00BB               	movwf	___fldiv@b+3
  5240  046D  3000               	movlw	0
  5241  046E  00BA               	movwf	___fldiv@b+2
  5242  046F  3000               	movlw	0
  5243  0470  00B9               	movwf	___fldiv@b+1
  5244  0471  3000               	movlw	0
  5245  0472  00B8               	movwf	___fldiv@b
  5246  0473                     l1714:
  5247  0473  01C5               	clrf	___fldiv@sign
  5248  0474                     l621:
  5249  0474  1283               	bcf	3,5	;RP0=0, select bank0
  5250  0475  1303               	bcf	3,6	;RP1=0, select bank0
  5251  0476  0846               	movf	___fldiv@new_exp,w
  5252  0477  00BC               	movwf	??___fldiv
  5253  0478  083C               	movf	??___fldiv,w
  5254  0479  00CC               	movwf	___fldiv@bexp
  5255  047A                     l1716:
  5256  047A  1C4C               	btfss	___fldiv@bexp,0
  5257  047B  2C7D               	goto	u2181
  5258  047C  2C7E               	goto	u2180
  5259  047D                     u2181:
  5260  047D  2C80               	goto	l1720
  5261  047E                     u2180:
  5262  047E                     l1718:
  5263  047E  17BA               	bsf	___fldiv@b+2,7
  5264  047F  2C84               	goto	l623
  5265  0480                     l1720:
  5266  0480  307F               	movlw	127
  5267  0481  00BC               	movwf	??___fldiv
  5268  0482  083C               	movf	??___fldiv,w
  5269  0483  05BA               	andwf	___fldiv@b+2,f
  5270  0484                     l623:
  5271  0484  084C               	movf	___fldiv@bexp,w
  5272  0485  00BC               	movwf	??___fldiv
  5273  0486  1003               	clrc
  5274  0487  0C3C               	rrf	??___fldiv,w
  5275  0488  00BD               	movwf	??___fldiv+1
  5276  0489  083D               	movf	??___fldiv+1,w
  5277  048A  00BB               	movwf	___fldiv@b+3
  5278  048B  0845               	movf	___fldiv@sign,w
  5279  048C  00BC               	movwf	??___fldiv
  5280  048D  083C               	movf	??___fldiv,w
  5281  048E  04BB               	iorwf	___fldiv@b+3,f
  5282  048F  2B28               	goto	l1628
  5283  0490                     l601:
  5284  0490  0008               	return
  5285  0491                     __end_of___fldiv:
  5286                           
  5287                           	psect	text17
  5288  0B16                     __ptext17:	
  5289 ;; *************** function _PWM_Init *****************
  5290 ;; Defined at:
  5291 ;;		line 12 in file "C:/Users/leoba/Downloads/biblioteca/PWM.c"
  5292 ;; Parameters:    Size  Location     Type
  5293 ;;  freq            4    6[BANK0 ] long 
  5294 ;; Auto vars:     Size  Location     Type
  5295 ;;		None
  5296 ;; Return value:  Size  Location     Type
  5297 ;;                  1    wreg      void 
  5298 ;; Registers used:
  5299 ;;		wreg, status,2, status,0, pclath, cstack
  5300 ;; Tracked objects:
  5301 ;;		On entry : 0/0
  5302 ;;		On exit  : 0/0
  5303 ;;		Unchanged: 0/0
  5304 ;; Data sizes:     COMMON   BANK0   BANK1   BANK3   BANK2
  5305 ;;      Params:         0       4       0       0       0
  5306 ;;      Locals:         0       0       0       0       0
  5307 ;;      Temps:          4       0       0       0       0
  5308 ;;      Totals:         4       4       0       0       0
  5309 ;;Total ram usage:        8 bytes
  5310 ;; Hardware stack levels used: 1
  5311 ;; Hardware stack levels required when called: 1
  5312 ;; This function calls:
  5313 ;;		___aldiv
  5314 ;; This function is called by:
  5315 ;;		_PWM1_Duty
  5316 ;;		_PWM2_Duty
  5317 ;; This function uses a non-reentrant model
  5318 ;;
  5319                           
  5320                           
  5321                           ;psect for function _PWM_Init
  5322  0B16                     _PWM_Init:
  5323  0B16                     l1498:	
  5324                           ;incstack = 0
  5325                           ; Regs used in _PWM_Init: [wreg+status,2+status,0+pclath+cstack]
  5326                           
  5327                           
  5328                           ;C:/Users/leoba/Downloads/biblioteca/PWM.c: 12: void PWM_Init(long freq);C:/Users/leoba/
      +                          Downloads/biblioteca/PWM.c: 13: {;C:/Users/leoba/Downloads/biblioteca/PWM.c: 14:   PR2 =
      +                           (4000000/(freq*4*4)) - 1;
  5329  0B16  1283               	bcf	3,5	;RP0=0, select bank0
  5330  0B17  1303               	bcf	3,6	;RP1=0, select bank0
  5331  0B18  0826               	movf	PWM_Init@freq,w
  5332  0B19  00F9               	movwf	??_PWM_Init
  5333  0B1A  0827               	movf	PWM_Init@freq+1,w
  5334  0B1B  00FA               	movwf	??_PWM_Init+1
  5335  0B1C  0828               	movf	PWM_Init@freq+2,w
  5336  0B1D  00FB               	movwf	??_PWM_Init+2
  5337  0B1E  0829               	movf	PWM_Init@freq+3,w
  5338  0B1F  00FC               	movwf	??_PWM_Init+3
  5339  0B20  3002               	movlw	2
  5340  0B21                     u1655:
  5341  0B21  1003               	clrc
  5342  0B22  0DF9               	rlf	??_PWM_Init,f
  5343  0B23  0DFA               	rlf	??_PWM_Init+1,f
  5344  0B24  0DFB               	rlf	??_PWM_Init+2,f
  5345  0B25  0DFC               	rlf	??_PWM_Init+3,f
  5346  0B26                     u1650:
  5347  0B26  3EFF               	addlw	-1
  5348  0B27  1D03               	skipz
  5349  0B28  2B21               	goto	u1655
  5350  0B29  3002               	movlw	2
  5351  0B2A                     u1665:
  5352  0B2A  1003               	clrc
  5353  0B2B  0DF9               	rlf	??_PWM_Init,f
  5354  0B2C  0DFA               	rlf	??_PWM_Init+1,f
  5355  0B2D  0DFB               	rlf	??_PWM_Init+2,f
  5356  0B2E  0DFC               	rlf	??_PWM_Init+3,f
  5357  0B2F                     u1660:
  5358  0B2F  3EFF               	addlw	-1
  5359  0B30  1D03               	skipz
  5360  0B31  2B2A               	goto	u1665
  5361  0B32  087C               	movf	??_PWM_Init+3,w
  5362  0B33  00F3               	movwf	___aldiv@divisor+3
  5363  0B34  087B               	movf	??_PWM_Init+2,w
  5364  0B35  00F2               	movwf	___aldiv@divisor+2
  5365  0B36  087A               	movf	??_PWM_Init+1,w
  5366  0B37  00F1               	movwf	___aldiv@divisor+1
  5367  0B38  0879               	movf	??_PWM_Init,w
  5368  0B39  00F0               	movwf	___aldiv@divisor
  5369  0B3A  3000               	movlw	0
  5370  0B3B  00F7               	movwf	___aldiv@dividend+3
  5371  0B3C  303D               	movlw	61
  5372  0B3D  00F6               	movwf	___aldiv@dividend+2
  5373  0B3E  3009               	movlw	9
  5374  0B3F  00F5               	movwf	___aldiv@dividend+1
  5375  0B40  3000               	movlw	0
  5376  0B41  00F4               	movwf	___aldiv@dividend
  5377  0B42  120A  158A  2467  120A  158A  	fcall	___aldiv
  5378  0B47  0870               	movf	?___aldiv,w
  5379  0B48  3EFF               	addlw	255
  5380  0B49  1683               	bsf	3,5	;RP0=1, select bank1
  5381  0B4A  1303               	bcf	3,6	;RP1=0, select bank1
  5382  0B4B  0092               	movwf	18	;volatile
  5383  0B4C                     l122:
  5384  0B4C  0008               	return
  5385  0B4D                     __end_of_PWM_Init:
  5386                           
  5387                           	psect	text18
  5388  0C67                     __ptext18:	
  5389 ;; *************** function ___aldiv *****************
  5390 ;; Defined at:
  5391 ;;		line 5 in file "C:\Program Files\Microchip\xc8\v2.32\pic\sources\c90\common\aldiv.c"
  5392 ;; Parameters:    Size  Location     Type
  5393 ;;  divisor         4    0[COMMON] long 
  5394 ;;  dividend        4    4[COMMON] long 
  5395 ;; Auto vars:     Size  Location     Type
  5396 ;;  quotient        4    2[BANK0 ] long 
  5397 ;;  sign            1    1[BANK0 ] unsigned char 
  5398 ;;  counter         1    0[BANK0 ] unsigned char 
  5399 ;; Return value:  Size  Location     Type
  5400 ;;                  4    0[COMMON] long 
  5401 ;; Registers used:
  5402 ;;		wreg, status,2, status,0
  5403 ;; Tracked objects:
  5404 ;;		On entry : 0/0
  5405 ;;		On exit  : 0/0
  5406 ;;		Unchanged: 0/0
  5407 ;; Data sizes:     COMMON   BANK0   BANK1   BANK3   BANK2
  5408 ;;      Params:         8       0       0       0       0
  5409 ;;      Locals:         0       6       0       0       0
  5410 ;;      Temps:          1       0       0       0       0
  5411 ;;      Totals:         9       6       0       0       0
  5412 ;;Total ram usage:       15 bytes
  5413 ;; Hardware stack levels used: 1
  5414 ;; This function calls:
  5415 ;;		Nothing
  5416 ;; This function is called by:
  5417 ;;		_PWM_Init
  5418 ;;		_PWM1_Duty
  5419 ;;		_PWM2_Duty
  5420 ;; This function uses a non-reentrant model
  5421 ;;
  5422                           
  5423                           
  5424                           ;psect for function ___aldiv
  5425  0C67                     ___aldiv:
  5426  0C67                     l1444:	
  5427                           ;incstack = 0
  5428                           ; Regs used in ___aldiv: [wreg+status,2+status,0]
  5429                           
  5430  0C67  1283               	bcf	3,5	;RP0=0, select bank0
  5431  0C68  1303               	bcf	3,6	;RP1=0, select bank0
  5432  0C69  01A1               	clrf	___aldiv@sign
  5433  0C6A                     l1446:
  5434  0C6A  1FF3               	btfss	___aldiv@divisor+3,7
  5435  0C6B  2C6D               	goto	u1521
  5436  0C6C  2C6E               	goto	u1520
  5437  0C6D                     u1521:
  5438  0C6D  2C7B               	goto	l315
  5439  0C6E                     u1520:
  5440  0C6E                     l1448:
  5441  0C6E  09F0               	comf	___aldiv@divisor,f
  5442  0C6F  09F1               	comf	___aldiv@divisor+1,f
  5443  0C70  09F2               	comf	___aldiv@divisor+2,f
  5444  0C71  09F3               	comf	___aldiv@divisor+3,f
  5445  0C72  0AF0               	incf	___aldiv@divisor,f
  5446  0C73  1903               	skipnz
  5447  0C74  0AF1               	incf	___aldiv@divisor+1,f
  5448  0C75  1903               	skipnz
  5449  0C76  0AF2               	incf	___aldiv@divisor+2,f
  5450  0C77  1903               	skipnz
  5451  0C78  0AF3               	incf	___aldiv@divisor+3,f
  5452  0C79  01A1               	clrf	___aldiv@sign
  5453  0C7A  0AA1               	incf	___aldiv@sign,f
  5454  0C7B                     l315:
  5455  0C7B  1FF7               	btfss	___aldiv@dividend+3,7
  5456  0C7C  2C7E               	goto	u1531
  5457  0C7D  2C7F               	goto	u1530
  5458  0C7E                     u1531:
  5459  0C7E  2C8E               	goto	l1454
  5460  0C7F                     u1530:
  5461  0C7F                     l1450:
  5462  0C7F  09F4               	comf	___aldiv@dividend,f
  5463  0C80  09F5               	comf	___aldiv@dividend+1,f
  5464  0C81  09F6               	comf	___aldiv@dividend+2,f
  5465  0C82  09F7               	comf	___aldiv@dividend+3,f
  5466  0C83  0AF4               	incf	___aldiv@dividend,f
  5467  0C84  1903               	skipnz
  5468  0C85  0AF5               	incf	___aldiv@dividend+1,f
  5469  0C86  1903               	skipnz
  5470  0C87  0AF6               	incf	___aldiv@dividend+2,f
  5471  0C88  1903               	skipnz
  5472  0C89  0AF7               	incf	___aldiv@dividend+3,f
  5473  0C8A                     l1452:
  5474  0C8A  3001               	movlw	1
  5475  0C8B  00F8               	movwf	??___aldiv
  5476  0C8C  0878               	movf	??___aldiv,w
  5477  0C8D  06A1               	xorwf	___aldiv@sign,f
  5478  0C8E                     l1454:
  5479  0C8E  3000               	movlw	0
  5480  0C8F  00A5               	movwf	___aldiv@quotient+3
  5481  0C90  3000               	movlw	0
  5482  0C91  00A4               	movwf	___aldiv@quotient+2
  5483  0C92  3000               	movlw	0
  5484  0C93  00A3               	movwf	___aldiv@quotient+1
  5485  0C94  3000               	movlw	0
  5486  0C95  00A2               	movwf	___aldiv@quotient
  5487  0C96                     l1456:
  5488  0C96  0873               	movf	___aldiv@divisor+3,w
  5489  0C97  0472               	iorwf	___aldiv@divisor+2,w
  5490  0C98  0471               	iorwf	___aldiv@divisor+1,w
  5491  0C99  0470               	iorwf	___aldiv@divisor,w
  5492  0C9A  1903               	skipnz
  5493  0C9B  2C9D               	goto	u1541
  5494  0C9C  2C9E               	goto	u1540
  5495  0C9D                     u1541:
  5496  0C9D  2CEB               	goto	l1476
  5497  0C9E                     u1540:
  5498  0C9E                     l1458:
  5499  0C9E  01A0               	clrf	___aldiv@counter
  5500  0C9F  0AA0               	incf	___aldiv@counter,f
  5501  0CA0  2CAE               	goto	l1462
  5502  0CA1                     l1460:
  5503  0CA1  3001               	movlw	1
  5504  0CA2  00F8               	movwf	??___aldiv
  5505  0CA3                     u1555:
  5506  0CA3  1003               	clrc
  5507  0CA4  0DF0               	rlf	___aldiv@divisor,f
  5508  0CA5  0DF1               	rlf	___aldiv@divisor+1,f
  5509  0CA6  0DF2               	rlf	___aldiv@divisor+2,f
  5510  0CA7  0DF3               	rlf	___aldiv@divisor+3,f
  5511  0CA8  0BF8               	decfsz	??___aldiv,f
  5512  0CA9  2CA3               	goto	u1555
  5513  0CAA  3001               	movlw	1
  5514  0CAB  00F8               	movwf	??___aldiv
  5515  0CAC  0878               	movf	??___aldiv,w
  5516  0CAD  07A0               	addwf	___aldiv@counter,f
  5517  0CAE                     l1462:
  5518  0CAE  1FF3               	btfss	___aldiv@divisor+3,7
  5519  0CAF  2CB1               	goto	u1561
  5520  0CB0  2CB2               	goto	u1560
  5521  0CB1                     u1561:
  5522  0CB1  2CA1               	goto	l1460
  5523  0CB2                     u1560:
  5524  0CB2                     l1464:
  5525  0CB2  3001               	movlw	1
  5526  0CB3  00F8               	movwf	??___aldiv
  5527  0CB4                     u1575:
  5528  0CB4  1003               	clrc
  5529  0CB5  0DA2               	rlf	___aldiv@quotient,f
  5530  0CB6  0DA3               	rlf	___aldiv@quotient+1,f
  5531  0CB7  0DA4               	rlf	___aldiv@quotient+2,f
  5532  0CB8  0DA5               	rlf	___aldiv@quotient+3,f
  5533  0CB9  0BF8               	decfsz	??___aldiv,f
  5534  0CBA  2CB4               	goto	u1575
  5535  0CBB                     l1466:
  5536  0CBB  0873               	movf	___aldiv@divisor+3,w
  5537  0CBC  0277               	subwf	___aldiv@dividend+3,w
  5538  0CBD  1D03               	skipz
  5539  0CBE  2CC9               	goto	u1585
  5540  0CBF  0872               	movf	___aldiv@divisor+2,w
  5541  0CC0  0276               	subwf	___aldiv@dividend+2,w
  5542  0CC1  1D03               	skipz
  5543  0CC2  2CC9               	goto	u1585
  5544  0CC3  0871               	movf	___aldiv@divisor+1,w
  5545  0CC4  0275               	subwf	___aldiv@dividend+1,w
  5546  0CC5  1D03               	skipz
  5547  0CC6  2CC9               	goto	u1585
  5548  0CC7  0870               	movf	___aldiv@divisor,w
  5549  0CC8  0274               	subwf	___aldiv@dividend,w
  5550  0CC9                     u1585:
  5551  0CC9  1C03               	skipc
  5552  0CCA  2CCC               	goto	u1581
  5553  0CCB  2CCD               	goto	u1580
  5554  0CCC                     u1581:
  5555  0CCC  2CDC               	goto	l1472
  5556  0CCD                     u1580:
  5557  0CCD                     l1468:
  5558  0CCD  0870               	movf	___aldiv@divisor,w
  5559  0CCE  02F4               	subwf	___aldiv@dividend,f
  5560  0CCF  0871               	movf	___aldiv@divisor+1,w
  5561  0CD0  1C03               	skipc
  5562  0CD1  0F71               	incfsz	___aldiv@divisor+1,w
  5563  0CD2  02F5               	subwf	___aldiv@dividend+1,f
  5564  0CD3  0872               	movf	___aldiv@divisor+2,w
  5565  0CD4  1C03               	skipc
  5566  0CD5  0F72               	incfsz	___aldiv@divisor+2,w
  5567  0CD6  02F6               	subwf	___aldiv@dividend+2,f
  5568  0CD7  0873               	movf	___aldiv@divisor+3,w
  5569  0CD8  1C03               	skipc
  5570  0CD9  0F73               	incfsz	___aldiv@divisor+3,w
  5571  0CDA  02F7               	subwf	___aldiv@dividend+3,f
  5572  0CDB                     l1470:
  5573  0CDB  1422               	bsf	___aldiv@quotient,0
  5574  0CDC                     l1472:
  5575  0CDC  3001               	movlw	1
  5576  0CDD                     u1595:
  5577  0CDD  1003               	clrc
  5578  0CDE  0CF3               	rrf	___aldiv@divisor+3,f
  5579  0CDF  0CF2               	rrf	___aldiv@divisor+2,f
  5580  0CE0  0CF1               	rrf	___aldiv@divisor+1,f
  5581  0CE1  0CF0               	rrf	___aldiv@divisor,f
  5582  0CE2  3EFF               	addlw	-1
  5583  0CE3  1D03               	skipz
  5584  0CE4  2CDD               	goto	u1595
  5585  0CE5                     l1474:
  5586  0CE5  3001               	movlw	1
  5587  0CE6  02A0               	subwf	___aldiv@counter,f
  5588  0CE7  1D03               	btfss	3,2
  5589  0CE8  2CEA               	goto	u1601
  5590  0CE9  2CEB               	goto	u1600
  5591  0CEA                     u1601:
  5592  0CEA  2CB2               	goto	l1464
  5593  0CEB                     u1600:
  5594  0CEB                     l1476:
  5595  0CEB  0821               	movf	___aldiv@sign,w
  5596  0CEC  1903               	btfsc	3,2
  5597  0CED  2CEF               	goto	u1611
  5598  0CEE  2CF0               	goto	u1610
  5599  0CEF                     u1611:
  5600  0CEF  2CFB               	goto	l1480
  5601  0CF0                     u1610:
  5602  0CF0                     l1478:
  5603  0CF0  09A2               	comf	___aldiv@quotient,f
  5604  0CF1  09A3               	comf	___aldiv@quotient+1,f
  5605  0CF2  09A4               	comf	___aldiv@quotient+2,f
  5606  0CF3  09A5               	comf	___aldiv@quotient+3,f
  5607  0CF4  0AA2               	incf	___aldiv@quotient,f
  5608  0CF5  1903               	skipnz
  5609  0CF6  0AA3               	incf	___aldiv@quotient+1,f
  5610  0CF7  1903               	skipnz
  5611  0CF8  0AA4               	incf	___aldiv@quotient+2,f
  5612  0CF9  1903               	skipnz
  5613  0CFA  0AA5               	incf	___aldiv@quotient+3,f
  5614  0CFB                     l1480:
  5615  0CFB  0825               	movf	___aldiv@quotient+3,w
  5616  0CFC  00F3               	movwf	?___aldiv+3
  5617  0CFD  0824               	movf	___aldiv@quotient+2,w
  5618  0CFE  00F2               	movwf	?___aldiv+2
  5619  0CFF  0823               	movf	___aldiv@quotient+1,w
  5620  0D00  00F1               	movwf	?___aldiv+1
  5621  0D01  0822               	movf	___aldiv@quotient,w
  5622  0D02  00F0               	movwf	?___aldiv
  5623  0D03                     l325:
  5624  0D03  0008               	return
  5625  0D04                     __end_of___aldiv:
  5626                           
  5627                           	psect	text19
  5628  0AE2                     __ptext19:	
  5629 ;; *************** function _ADC_Read *****************
  5630 ;; Defined at:
  5631 ;;		line 17 in file "C:/Users/leoba/Downloads/biblioteca/adc.c"
  5632 ;; Parameters:    Size  Location     Type
  5633 ;;  channel         1    wreg     unsigned char 
  5634 ;; Auto vars:     Size  Location     Type
  5635 ;;  channel         1    4[COMMON] unsigned char 
  5636 ;; Return value:  Size  Location     Type
  5637 ;;                  2    0[COMMON] unsigned int 
  5638 ;; Registers used:
  5639 ;;		wreg, status,2, status,0
  5640 ;; Tracked objects:
  5641 ;;		On entry : 0/0
  5642 ;;		On exit  : 0/0
  5643 ;;		Unchanged: 0/0
  5644 ;; Data sizes:     COMMON   BANK0   BANK1   BANK3   BANK2
  5645 ;;      Params:         2       0       0       0       0
  5646 ;;      Locals:         1       0       0       0       0
  5647 ;;      Temps:          2       0       0       0       0
  5648 ;;      Totals:         5       0       0       0       0
  5649 ;;Total ram usage:        5 bytes
  5650 ;; Hardware stack levels used: 1
  5651 ;; This function calls:
  5652 ;;		Nothing
  5653 ;; This function is called by:
  5654 ;;		_main
  5655 ;; This function uses a non-reentrant model
  5656 ;;
  5657                           
  5658                           
  5659                           ;psect for function _ADC_Read
  5660  0AE2                     _ADC_Read:
  5661                           
  5662                           ;incstack = 0
  5663                           ; Regs used in _ADC_Read: [wreg+status,2+status,0]
  5664                           ;ADC_Read@channel stored from wreg
  5665  0AE2  00F4               	movwf	ADC_Read@channel
  5666  0AE3                     l1998:
  5667                           
  5668                           ;C:/Users/leoba/Downloads/biblioteca/adc.c: 17: unsigned int ADC_Read(unsigned char chan
      +                          nel);C:/Users/leoba/Downloads/biblioteca/adc.c: 18: {;C:/Users/leoba/Downloads/bibliotec
      +                          a/adc.c: 19:    if(channel > 7)
  5669  0AE3  3008               	movlw	8
  5670  0AE4  0274               	subwf	ADC_Read@channel,w
  5671  0AE5  1C03               	skipc
  5672  0AE6  2AE8               	goto	u2801
  5673  0AE7  2AE9               	goto	u2800
  5674  0AE8                     u2801:
  5675  0AE8  2AEC               	goto	l2004
  5676  0AE9                     u2800:
  5677  0AE9                     l2000:
  5678                           
  5679                           ;C:/Users/leoba/Downloads/biblioteca/adc.c: 20:      return 0;
  5680  0AE9  01F0               	clrf	?_ADC_Read
  5681  0AEA  01F1               	clrf	?_ADC_Read+1
  5682  0AEB  2B15               	goto	l161
  5683  0AEC                     l2004:
  5684                           
  5685                           ;C:/Users/leoba/Downloads/biblioteca/adc.c: 22:    ADCON0 &= 0xC5;
  5686  0AEC  30C5               	movlw	197
  5687  0AED  00F2               	movwf	??_ADC_Read
  5688  0AEE  0872               	movf	??_ADC_Read,w
  5689  0AEF  1283               	bcf	3,5	;RP0=0, select bank0
  5690  0AF0  1303               	bcf	3,6	;RP1=0, select bank0
  5691  0AF1  059F               	andwf	31,f	;volatile
  5692                           
  5693                           ;C:/Users/leoba/Downloads/biblioteca/adc.c: 23:    ADCON0 |= channel<<3;
  5694  0AF2  0874               	movf	ADC_Read@channel,w	;volatile
  5695  0AF3  00F2               	movwf	??_ADC_Read
  5696  0AF4  3002               	movlw	2
  5697  0AF5                     u2815:
  5698  0AF5  1003               	clrc
  5699  0AF6  0DF2               	rlf	??_ADC_Read,f
  5700  0AF7  3EFF               	addlw	-1
  5701  0AF8  1D03               	skipz
  5702  0AF9  2AF5               	goto	u2815
  5703  0AFA  1003               	clrc
  5704  0AFB  0D72               	rlf	??_ADC_Read,w
  5705  0AFC  00F3               	movwf	??_ADC_Read+1
  5706  0AFD  0873               	movf	??_ADC_Read+1,w
  5707  0AFE  049F               	iorwf	31,f	;volatile
  5708  0AFF                     l2006:
  5709                           
  5710                           ;C:/Users/leoba/Downloads/biblioteca/adc.c: 24:    _delay((unsigned long)((2)*(4000000/4
      +                          000.0)));
  5711  0AFF  3003               	movlw	3
  5712  0B00  00F3               	movwf	??_ADC_Read+1
  5713  0B01  3097               	movlw	151
  5714  0B02  00F2               	movwf	??_ADC_Read
  5715  0B03                     u3077:
  5716  0B03  0BF2               	decfsz	??_ADC_Read,f
  5717  0B04  2B03               	goto	u3077
  5718  0B05  0BF3               	decfsz	??_ADC_Read+1,f
  5719  0B06  2B03               	goto	u3077
  5720  0B07  2B08               	nop2
  5721  0B08                     l2008:
  5722                           
  5723                           ;C:/Users/leoba/Downloads/biblioteca/adc.c: 25:    GO_nDONE = 1;
  5724  0B08  1283               	bcf	3,5	;RP0=0, select bank0
  5725  0B09  1303               	bcf	3,6	;RP1=0, select bank0
  5726  0B0A  151F               	bsf	31,2	;volatile
  5727  0B0B                     l162:	
  5728                           ;C:/Users/leoba/Downloads/biblioteca/adc.c: 26:    while(GO_nDONE);
  5729                           
  5730  0B0B  191F               	btfsc	31,2	;volatile
  5731  0B0C  2B0E               	goto	u2821
  5732  0B0D  2B0F               	goto	u2820
  5733  0B0E                     u2821:
  5734  0B0E  2B0B               	goto	l162
  5735  0B0F                     u2820:
  5736  0B0F                     l2010:
  5737                           
  5738                           ;C:/Users/leoba/Downloads/biblioteca/adc.c: 27:    return ((unsigned int)(ADRESH<<8)+ADR
      +                          ESL);
  5739  0B0F  081E               	movf	30,w	;volatile
  5740  0B10  00F1               	movwf	?_ADC_Read+1
  5741  0B11  1683               	bsf	3,5	;RP0=1, select bank1
  5742  0B12  1303               	bcf	3,6	;RP1=0, select bank1
  5743  0B13  081E               	movf	30,w	;volatile
  5744  0B14  00F0               	movwf	?_ADC_Read
  5745  0B15                     l161:
  5746  0B15  0008               	return
  5747  0B16                     __end_of_ADC_Read:
  5748                           
  5749                           	psect	text20
  5750  0A6C                     __ptext20:	
  5751 ;; *************** function _ADC_Init *****************
  5752 ;; Defined at:
  5753 ;;		line 11 in file "C:/Users/leoba/Downloads/biblioteca/adc.c"
  5754 ;; Parameters:    Size  Location     Type
  5755 ;;		None
  5756 ;; Auto vars:     Size  Location     Type
  5757 ;;		None
  5758 ;; Return value:  Size  Location     Type
  5759 ;;                  1    wreg      void 
  5760 ;; Registers used:
  5761 ;;		wreg
  5762 ;; Tracked objects:
  5763 ;;		On entry : 0/0
  5764 ;;		On exit  : 0/0
  5765 ;;		Unchanged: 0/0
  5766 ;; Data sizes:     COMMON   BANK0   BANK1   BANK3   BANK2
  5767 ;;      Params:         0       0       0       0       0
  5768 ;;      Locals:         0       0       0       0       0
  5769 ;;      Temps:          0       0       0       0       0
  5770 ;;      Totals:         0       0       0       0       0
  5771 ;;Total ram usage:        0 bytes
  5772 ;; Hardware stack levels used: 1
  5773 ;; This function calls:
  5774 ;;		Nothing
  5775 ;; This function is called by:
  5776 ;;		_main
  5777 ;; This function uses a non-reentrant model
  5778 ;;
  5779                           
  5780                           
  5781                           ;psect for function _ADC_Init
  5782  0A6C                     _ADC_Init:
  5783  0A6C                     l1992:	
  5784                           ;incstack = 0
  5785                           ; Regs used in _ADC_Init: [wreg]
  5786                           
  5787                           
  5788                           ;C:/Users/leoba/Downloads/biblioteca/adc.c: 13:    ADCON1 = 0x80;
  5789  0A6C  3080               	movlw	128
  5790  0A6D  1683               	bsf	3,5	;RP0=1, select bank1
  5791  0A6E  1303               	bcf	3,6	;RP1=0, select bank1
  5792  0A6F  009F               	movwf	31	;volatile
  5793                           
  5794                           ;C:/Users/leoba/Downloads/biblioteca/adc.c: 14:    ADCON0 = 0xC1;
  5795  0A70  30C1               	movlw	193
  5796  0A71  1283               	bcf	3,5	;RP0=0, select bank0
  5797  0A72  1303               	bcf	3,6	;RP1=0, select bank0
  5798  0A73  009F               	movwf	31	;volatile
  5799  0A74                     l157:
  5800  0A74  0008               	return
  5801  0A75                     __end_of_ADC_Init:
  5802  007E                     btemp	set	126	;btemp
  5803  007E                     wtemp0	set	126
  5804                           
  5805                           	psect	config
  5806                           
  5807                           ;Config register CONFIG @ 0x2007
  5808                           ;	Oscillator Selection bits
  5809                           ;	FOSC = HS, HS oscillator
  5810                           ;	Watchdog Timer Enable bit
  5811                           ;	WDTE = OFF, WDT disabled
  5812                           ;	Power-up Timer Enable bit
  5813                           ;	PWRTE = OFF, PWRT disabled
  5814                           ;	Brown-out Reset Enable bit
  5815                           ;	BOREN = OFF, BOR disabled
  5816                           ;	Low-Voltage (Single-Supply) In-Circuit Serial Programming Enable bit
  5817                           ;	LVP = OFF, RB3 is digital I/O, HV on MCLR must be used for programming
  5818                           ;	Data EEPROM Memory Code Protection bit
  5819                           ;	CPD = OFF, Data EEPROM code protection off
  5820                           ;	Flash Program Memory Write Enable bits
  5821                           ;	WRT = OFF, Write protection off; all program memory may be written to by EECON control
  5822                           ;	In-Circuit Debugger Mode bit
  5823                           ;	DEBUG = 0x1, unprogrammed default
  5824                           ;	Flash Program Memory Code Protection bit
  5825                           ;	CP = OFF, Code protection off
  5826  2007                     	org	8199
  5827  2007  3F3A               	dw	16186

Data Sizes:
    Strings     0
    Constant    10
    Data        0
    BSS         8
    Persistent  2
    Stack       0

Auto Spaces:
    Space          Size  Autos    Used
    COMMON           14     14      14
    BANK0            80     80      80
    BANK1            80     21      31
    BANK3            96      0       0
    BANK2            96      0       0

Pointer List with Targets:

    None.

Critical Paths under _main in COMMON

    _main->___lwdiv
    _atualizaDisplay->___lwdiv
    ___lwdiv->___lwmod
    ___wmul->_ADC_Read
    ___xxtofl->___lwdiv
    _PWM_Init->___aldiv

Critical Paths under _main in BANK0

    _main->_PWM1_Duty
    _main->_PWM2_Duty
    ___flge->___xxtofl
    _PWM2_Duty->___fltol
    _PWM1_Duty->___fltol
    ___xxtofl->___aldiv
    ___fltol->___flmul
    ___flmul->___fldiv
    ___fldiv->___xxtofl
    _PWM_Init->___aldiv

Critical Paths under _main in BANK1

    _main->_PWM1_Duty
    _main->_PWM2_Duty
    _PWM2_Duty->___fltol
    _PWM1_Duty->___fltol

Critical Paths under _main in BANK3

    None.

Critical Paths under _main in BANK2

    None.

Call Graph Tables:

 ---------------------------------------------------------------------------------
 (Depth) Function   	        Calls       Base Space   Used Autos Params    Refs
 ---------------------------------------------------------------------------------
 (0) _main                                                12    12      0   18970
                                              9 BANK1     12    12      0
                           _ADC_Init
                           _ADC_Read
                          _PWM1_Duty
                         _PWM1_Start
                          _PWM2_Duty
                         _PWM2_Start
                             ___flge
                            ___lwdiv
                             ___wmul
                           ___xxtofl
                    _atualizaDisplay
                  _controlarSetPoint
               _controleMaximoMinimo
 ---------------------------------------------------------------------------------
 (1) _controleMaximoMinimo                                 2     0      2     144
                                              0 COMMON     2     0      2
 ---------------------------------------------------------------------------------
 (1) _controlarSetPoint                                    3     1      2     102
                                              0 COMMON     3     1      2
 ---------------------------------------------------------------------------------
 (1) _atualizaDisplay                                     16    14      2    2166
                                              0 BANK0     16    14      2
                            ___lwdiv
                            ___lwmod
 ---------------------------------------------------------------------------------
 (2) ___lwmod                                              6     2      4    1071
                                              0 COMMON     6     2      4
 ---------------------------------------------------------------------------------
 (2) ___lwdiv                                              8     4      4     770
                                              6 COMMON     8     4      4
                            ___lwmod (ARG)
 ---------------------------------------------------------------------------------
 (1) ___wmul                                               6     2      4     244
                                              5 COMMON     6     2      4
                           _ADC_Read (ARG)
 ---------------------------------------------------------------------------------
 (1) ___flge                                              12     4      8     334
                                             20 BANK0     12     4      8
                           ___xxtofl (ARG)
 ---------------------------------------------------------------------------------
 (1) _PWM2_Start                                           0     0      0       0
 ---------------------------------------------------------------------------------
 (1) _PWM2_Duty                                            6     2      4    7124
                                             78 BANK0      2     2      0
                                              5 BANK1      4     0      4
                           _PWM_Init
                            ___aldiv
                            ___fldiv
                            ___flmul
                            ___fltol
                           ___xxtofl
 ---------------------------------------------------------------------------------
 (1) _PWM1_Start                                           0     0      0       0
 ---------------------------------------------------------------------------------
 (1) _PWM1_Duty                                            6     2      4    7124
                                             78 BANK0      2     2      0
                                              5 BANK1      4     0      4
                           _PWM_Init
                            ___aldiv
                            ___fldiv
                            ___flmul
                            ___fltol
                           ___xxtofl
 ---------------------------------------------------------------------------------
 (1) ___xxtofl                                            14    10      4     778
                                              6 BANK0     14    10      4
                            ___aldiv (ARG)
                            ___lwdiv (ARG)
 ---------------------------------------------------------------------------------
 (2) ___fltol                                             11     7      4     381
                                             72 BANK0      6     2      4
                                              0 BANK1      5     5      0
                            ___aldiv (ARG)
                            ___fldiv (ARG)
                            ___flmul (ARG)
                           ___xxtofl (ARG)
 ---------------------------------------------------------------------------------
 (2) ___flmul                                             26    18      8    2569
                                             46 BANK0     26    18      8
                          __Umul8_16
                            ___aldiv (ARG)
                            ___fldiv (ARG)
                           ___xxtofl (ARG)
 ---------------------------------------------------------------------------------
 (3) __Umul8_16                                            9     7      2     799
                                              0 COMMON     9     7      2
 ---------------------------------------------------------------------------------
 (2) ___fldiv                                             26    18      8    1425
                                             20 BANK0     26    18      8
                           ___xxtofl (ARG)
 ---------------------------------------------------------------------------------
 (2) _PWM_Init                                             8     4      4     930
                                              9 COMMON     4     4      0
                                              6 BANK0      4     0      4
                            ___aldiv
 ---------------------------------------------------------------------------------
 (2) ___aldiv                                             15     7      8     756
                                              0 COMMON     9     1      8
                                              0 BANK0      6     6      0
 ---------------------------------------------------------------------------------
 (1) _ADC_Read                                             5     3      2      44
                                              0 COMMON     5     3      2
 ---------------------------------------------------------------------------------
 (1) _ADC_Init                                             0     0      0       0
 ---------------------------------------------------------------------------------
 Estimated maximum stack depth 3
 ---------------------------------------------------------------------------------

 Call Graph Graphs:

 _main (ROOT)
   _ADC_Init
   _ADC_Read
   _PWM1_Duty
     _PWM_Init
       ___aldiv
     ___aldiv
     ___fldiv
       ___xxtofl (ARG)
         ___aldiv (ARG)
         ___lwdiv (ARG)
           ___lwmod (ARG)
     ___flmul
       __Umul8_16
       ___aldiv (ARG)
       ___fldiv (ARG)
       ___xxtofl (ARG)
     ___fltol
       ___aldiv (ARG)
       ___fldiv (ARG)
       ___flmul (ARG)
       ___xxtofl (ARG)
     ___xxtofl
   _PWM1_Start
   _PWM2_Duty
     _PWM_Init
     ___aldiv
     ___fldiv
     ___flmul
     ___fltol
     ___xxtofl
   _PWM2_Start
   ___flge
     ___xxtofl (ARG)
   ___lwdiv
   ___wmul
     _ADC_Read (ARG)
   ___xxtofl
   _atualizaDisplay
     ___lwdiv
     ___lwmod
   _controlarSetPoint
   _controleMaximoMinimo

 Address spaces:
Name               Size   Autos  Total    Cost      Usage
BITCOMMON            E      0       0       0        0.0%
EEDATA             100      0       0       0        0.0%
NULL                 0      0       0       0        0.0%
CODE                 0      0       0       0        0.0%
COMMON               E      E       E       1      100.0%
BITSFR0              0      0       0       1        0.0%
SFR0                 0      0       0       1        0.0%
BITSFR1              0      0       0       2        0.0%
SFR1                 0      0       0       2        0.0%
STACK                0      0       0       2        0.0%
ABS                  0      0      7D       3        0.0%
BITBANK0            50      0       0       4        0.0%
BITSFR3              0      0       0       4        0.0%
SFR3                 0      0       0       4        0.0%
BANK0               50     50      50       5      100.0%
BITSFR2              0      0       0       5        0.0%
SFR2                 0      0       0       5        0.0%
BITBANK1            50      0       0       6        0.0%
BANK1               50     15      1F       7       38.8%
BITBANK3            60      0       0       8        0.0%
BANK3               60      0       0       9        0.0%
BITBANK2            60      0       0      10        0.0%
BANK2               60      0       0      11        0.0%
DATA                 0      0      7D      12        0.0%


Microchip Technology PIC Macro Assembler V2.32 build 20210201212658 
Symbol Table                                                                                   Tue Mar 30 21:28:52 2021

                 ___fldiv@aexp 004D                   ___fldiv@bexp 004C                              pc 0002  
                 ___fldiv@sign 0045                             l70 0080                             l47 017E  
                           l66 0028                             l67 0044                             l75 0A95  
                           l68 0060                             l69 007C                             fsr 0004  
          ___wmul@multiplicand 0077            __Umul8_16@word_mpld 0076                            l122 0B4C  
                          l130 0FFF                            l133 0A7D                            l126 0F31  
                          l136 000F                            l161 0B15                            l162 0B0B  
                          l250 0AA2                            l315 0C7B                            l252 0ABA  
                          l157 0A74                            l325 0D03                            l424 0D22  
                          l601 0490                            l522 0BCA                            l443 0C51  
                          l427 0D8E                            l436 0C66                            l428 0DA7  
                          l532 0B86                            l621 0474                            l446 0C66  
                          l623 0484                            l615 0402                            l651 07E5  
                          l660 0AE1                            l645 075D                            l639 07F1  
                          l658 0ACF                            l683 0DCC                            l685 0E63  
                          l599 0310                            l696 0E2D                            l697 0E39  
                          l689 0E11                            _RB0 0030                            _RB1 0031  
                          _RB2 0032                            _RB3 0033                            _RB4 0034  
                          _RB5 0035                            _RB6 0036                            _RB7 0037  
                          _PR2 0092   __end_of_controleMaximoMinimo 0A96                            fsr0 0004  
            ??_atualizaDisplay 0022                   ___flmul@aexp 0060                   ___flmul@bexp 0061  
                 ___flmul@sign 005B                   ___flmul@temp 0066                   ___flmul@prod 0062  
                 ___fltol@exp1 006D                           l2000 0AE9                           l2010 0B0F  
                         l2004 0AEC                           l2020 0F14                           l2100 0263  
                         l2006 0AFF                           l2022 0F17                           l2014 0E64  
                         l2030 0F50                           l2110 029F                           l2102 026C  
                         l2008 0B08                           l2024 0F23                           l2016 0E77  
                         l2032 0FE2                           l2040 0A98                           l2104 0274  
                         l2018 0E82                           l2034 0FE5                           l2026 0F32  
                         l2042 0A9C                           l2106 0283                           l1500 0BCB  
                         l2036 0FF1                           l2028 0F45                           l2060 0D42  
                         l2052 0D04                           l2044 0AA9                           l2108 0290  
                         l1510 0C0B                           l1502 0BDC                           l2062 0D66  
                         l2054 0D1A                           l2046 0AB0                           l2038 0A96  
                         l1600 02D9                           l1512 0C13                           l2064 0D6A  
                         l2056 0D36                           l2048 0AB6                           l2080 0188  
                         l2072 017F                           l1450 0C7F                           l1610 02F2  
                         l1602 02DB                           l1530 0C3E                           l1522 0C21  
                         l1514 0C15                           l1506 0BE5                           l2066 0DA4  
                         l2058 0D3E                           l2090 019A                           l2082 018C  
                         l2074 0185                           l1460 0CA1                           l1452 0C8A  
                         l1444 0C67                           l1700 041E                           l1620 0306  
                         l1612 02F3                           l1604 02E3                           l1532 0C56  
                         l1516 0C19                           l1524 0C37                           l1508 0C0A  
                         l2068 0DA6                           l1540 0B8F                           l2092 019F  
                         l2084 018C                           l2076 0186                           l1470 0CDB  
                         l1462 0CAE                           l1454 0C8E                           l1446 0C6A  
                         l1710 0467                           l1702 0437                           l1614 02F8  
                         l1622 0308                           l1606 02E8                           l1534 0C5B  
                         l1550 0BB2                           l1542 0B92                           l2094 01B0  
                         l2086 0190                           l2078 0187                           l1480 0CFB  
                         l1472 0CDC                           l1464 0CB2                           l1456 0C96  
                         l1448 0C6E                           l1720 0480                           l1712 046B  
                         l1704 043D                           l1640 0351                           l1624 0318  
                         l1632 0331                           l1616 02FD                           l1608 02EE  
                         l1800 067E                           l1552 0BB8                           l1544 0B99  
                         l1536 0B87                           l2096 01DA                           l2088 0195  
                         l1474 0CE5                           l1466 0CBB                           l1458 0C9E  
                         l1714 0473                           l1706 044A                           l1650 0370  
                         l1642 0359                           l1634 0336                           l1626 0324  
                         l1618 0305                           l1490 0AC9                           l1810 0712  
                         l1802 068E                           l1730 049E                           l1554 0BB9  
                         l1546 0B9D                           l1538 0B89                           l1570 0B61  
                         l1562 0B4D                           l2098 0223                           l1468 0CCD  
                         l1476 0CEB                           l1716 047A                           l1708 0458  
                         l1660 03A2                           l1652 0382                           l1644 0361  
                         l1628 0328                           l1492 0AD8                           l1484 0ABC  
                         l1820 0737                           l1812 0720                           l1804 06BB  
                         l1740 04B5                           l1732 04A2                           l1900 0E51  
                         l1556 0BC0                           l1548 0BA1                           l1572 0B65  
                         l1564 0B53                           l1580 0B82                           l1478 0CF0  
                         l1718 047E                           l1670 03C3                           l1662 03A3  
                         l1654 0386                           l1646 0369                           l1638 033F  
                         l1590 02C5                           l1494 0ADD                           l1486 0ABE  
                         l1830 075A                           l1814 0729                           l1822 073D  
                         l1806 06E1                           l1750 04CE                           l1742 04B7  
                         l1734 04A3                           l1726 0491                           l1902 0E56  
                         l1558 0BC6                           l1574 0B6F                           l1566 0B56  
                         l1910 0081                           l1680 03DC                           l1672 03C5  
                         l1664 03B1                           l1656 0387                           l1648 036B  
                         l1592 02C6                           l1584 02B4                           l1488 0AC5  
                         l1840 0779                           l1824 0741                           l1816 072D  
                         l1808 0709                           l1760 04E3                           l1752 04CF  
                         l1744 04BF                           l1736 04A8                           l1728 0498  
                         l1904 0E5A                           l1576 0B75                           l1568 0B5D  
                         l1920 0139                           l1912 0122                           l1498 0B16  
                         l1690 03FF                           l1674 03CE                           l1682 03E2  
                         l1658 0390                           l1666 03B5                           l1594 02CB  
                         l1586 02BB                           l1850 07BF                           l1842 0792  
                         l1834 0762                           l1826 0742                           l1818 072E  
                         l1770 04FE                           l1762 04EB                           l1754 04D4  
                         l1746 04C4                           l1738 04AD                           l1906 0E5B  
                         l1578 0B7C                           l1930 0159                           l1922 0142  
                         l1914 012B                           l1684 03E6                           l1676 03D2  
                         l1668 03BB                           l1596 02D0                           l1588 02C1  
                         l1860 07DE                           l1852 07C9                           l1836 0767  
                         l1844 0798                           l1828 0746                           l1780 0580  
                         l1772 050E                           l1764 04F0                           l1756 04D9  
                         l1748 04CA                           l1940 0171                           l1932 015A  
                         l1924 0143                           l1916 012C                           l1694 0407  
                         l1686 03E7                           l1678 03D3                           l1598 02D8  
                         l1862 07E9                           l1854 07CB                           l1846 07A5  
                         l1838 0775                           l1790 05EE                           l1782 059C  
                         l1774 051B                           l1766 04F5                           l1758 04E1  
                         l1870 0DB4                           l1942 017B                           l1934 0164  
                         l1926 014D                           l1918 0136                           l1950 0022  
                         l1696 040C                           l1688 03EB                           l1856 07D9  
                         l1848 07B0                           l1792 05FE                           l1784 05B8  
                         l1776 0538                           l1880 0DE2                           l1872 0DC4  
                         l1936 0167                           l1928 0150                           l1960 0048  
                         l1952 002C                           l1944 0010                           l1698 041A  
                         l1858 07DD                           l1794 061B                           l1786 05C1  
                         l1778 0554                           l1890 0E18                           l1882 0DEF  
                         l1874 0DD4                           l1866 0DAB                           l1938 0170  
                         l1970 006C                           l1962 0050                           l1954 0034  
                         l1946 0018                           l1796 0634                           l1788 05D1  
                         l1892 0E23                           l1884 0DF6                           l1868 0DB0  
                         l1972 0071                           l1964 0055                           l1956 0039  
                         l1948 001D                           l1980 0A7E                           l1798 0651  
                         l1894 0E27                           l1886 0DFA                           l1878 0DDD  
                         l1974 0076                           l1966 005A                           l1958 003E  
                         l1982 0A82                           l1992 0A6C                           l1896 0E31  
                         l1888 0E08                           l1976 0080                           l1968 0064  
                         l1984 0A84                           l1898 0E3B                           l1994 0A75  
                         l1986 0A91                           l1996 0005                           l1988 0A95  
                         l1998 0AE3    controlarSetPoint@S1Anterior 00BC                           u2010 0386  
                         u2011 0385                           u2100 03EB                           u2101 03EA  
                         u2005 037B                           u2110 03FF                           u2030 03A2  
                         u2111 03FE                           u2031 03A1                           u2120 0406  
                         u2040 03BB                           u2200 04A8                           u2121 0405  
                         u2041 03BA                           u2025 0389                           u2201 04A7  
                         u3001 0D79                           u2130 040C                           u2050 03C3  
                         u2210 04AD                           u3010 0DA4                           u3002 0D7A  
                         u2131 040B                           u2051 03C2                           u2035 039E  
                         u2211 04AC                           u3011 0DA3                           u3003 0D7F  
                         u2140 041E                           u2220 04CE                           u3004 0D80  
                         u3020 0263                           u2141 041D                           u2301 05AA  
                         u2221 04CD                           u3005 0D85                           u3021 0262  
                         u2150 042D                           u2070 03D2                           u2302 05B1  
                         u2230 04D4                           u3006 0D86                           u2071 03D1  
                         u2303 05B8                           u2231 04D3                           u3015 0DA0  
                         u1600 0CEB                           u1520 0C6E                           u2160 044A  
                         u2400 06EF                           u2240 04D9                           u1601 0CEA  
                         u1521 0C6D                           u2161 0449                           u2065 03C7  
                         u2321 05E0                           u2241 04D8                           u1610 0CF0  
                         u1530 0C7F                           u2170 0467                           u2090 03E6  
                         u2322 05E7                           u2250 04F0                           u1611 0CEF  
                         u1531 0C7E                           u2171 0466                           u2155 0428  
                         u2091 03E5                           u2411 06FB                           u2331 060D  
                         u2323 05EE                           u2315 05BA                           u2251 04EF  
                         u1540 0C9E                           u2180 047E                           u1620 0AC9  
                         u2500 0767                           u2412 0702                           u2332 0614  
                         u2260 04F5                           u1700 0C20                           u1541 0C9D  
                         u2181 047D                           u2165 0446                           u2085 03D5  
                         u1621 0AC8                           u2501 0766                           u2413 0709  
                         u2405 06EA                           u2333 061B                           u2261 04F4  
                         u1701 0C1F                           u3037 0132                           u2510 0779  
                         u2190 04A2                           u2175 0463                           u2511 0778  
                         u2351 0643                           u2271 0546                           u2191 04A1  
                         u3047 0149                           u1560 0CB2                           u1640 0ADD  
                         u2520 0788                           u2440 072D                           u2352 064A  
                         u2272 054D                           u1720 0C36                           u2600 0DF5  
                         u1561 0CB1                           u1641 0ADC                           u2441 072C  
                         u2425 070B                           u2361 0670                           u2353 0651  
                         u2345 061D                           u2281 0562                           u2273 0554  
                         u1721 0C35                           u2601 0DF4                           u3057 0160  
                         u1650 0B26                           u2530 07A5                           u2362 0677  
                         u2282 0569                           u1730 0C3D                           u1810 0BB2  
                         u1555 0CA3                           u1635 0AD0                           u2531 07A4  
                         u2435 0722                           u2371 069D                           u2363 067E  
                         u2291 058E                           u2283 0570                           u1731 0C3C  
                         u1715 0C22                           u1811 0BB1                           u3067 0177  
                         u1580 0CCD                           u1660 0B2F                           u1900 02C5  
                         u2540 07BF                           u2460 0741                           u2380 06C7  
                         u2372 06A4                           u2292 0595                           u2620 0E17  
                         u2700 001D                           u3077 0B03                           u1581 0CCC  
                         u1901 02C4                           u2541 07BE                           u2525 0783  
                         u2461 0740                           u2373 06AB                           u2293 059C  
                         u2621 0E16                           u1805 0BA2                           u2701 001C  
                         u1910 02CB                           u2550 07DD                           u2470 0746  
                         u1750 0C56                           u1670 0BDC                           u1830 0BC6  
                         u2710 0022                           u1575 0CB4                           u1655 0B21  
                         u1911 02CA                           u2551 07DC                           u2535 07A1  
                         u2471 0745                           u2455 0730                           u2391 06D3  
                         u1751 0C55                           u1671 0BDB                           u2615 0E09  
                         u1831 0BC5                           u1815 0BAE                           u2711 0021  
                         u2800 0AE9                           u1920 02D0                           u2480 075A  
                         u2392 06DA                           u1760 0C5B                           u1680 0C01  
                         u2640 0E27                           u2560 0DB0                           u1840 0B53  
                         u2720 0039                           u2801 0AE8                           u1585 0CC9  
                         u1665 0B2A                           u1921 02CF                           u2545 07BB  
                         u2481 0759                           u2393 06E1                           u2385 06C2  
                         u1761 0C5A                           u1745 0C42                           u2641 0E26  
                         u2561 0DAF                           u1825 0BBA                           u1841 0B52  
                         u2721 0038                           u1930 02F2                           u2490 0761  
                         u1690 0C19                           u2650 0E2D                           u2570 0DB4  
                         u1770 0B8F                           u2730 003E                           u1595 0CDD  
                         u1931 02F1                           u2491 0760                           u1691 0C18  
                         u2651 0E2C                           u2635 0E1C                           u2571 0DB3  
                         u1771 0B8E                           u2731 003D                           u2820 0B0F  
                         u1940 02F8                           u2660 0E31                           u2580 0DD4  
                         u1860 0B65                           u2740 0055                           u2821 0B0E  
                         u1941 02F7                           u1685 0BFC                           u2661 0E30  
                         u2581 0DD3                           u1861 0B64                           u2741 0054  
                         u1950 02FD                           u2670 0E46                           u2830 0E82  
                         u2910 0A9C                           u1790 0BA1                           u1870 0B6F  
                         u2750 005A                           u2815 0AF5                           u1951 02FC  
                         u2831 0E81                           u2911 0A9B                           u1791 0BA0  
                         u1871 0B6E                           u1855 0B57                           u2751 0059  
                         u1960 0318                           u2680 0E56                           u2840 0F20  
                         u2760 0071                           u1961 0317                           u2681 0E55  
                         u2841 0F1C                           u2905 0FF8                           u1785 0B93  
                         u2761 0070                           u1970 0336                           u2690 0E5A  
                         u1890 0B82                           u2770 0076                           u1971 0335  
                         u2691 0E59                           u2675 0E41                           u2595 0DE7  
                         u1891 0B81                           u1875 0B6B                           u2771 0075  
                         u1980 0370                           u2940 0AB6                           u2780 0A82  
                         u1981 036F                           u2941 0AB5                           u2925 0AA3  
                         u1885 0B76                           u2781 0A81                           u2854 0F23  
                         u2870 0F50                           u2950 0D1A                           u2790 0A91  
                         u2871 0F4F                           u2951 0D19                           u2935 0AAA  
                         u2791 0A90                           u2880 0FEE                           u2960 0D36  
                         u2865 0F2A                           u2881 0FEA                           u2961 0D35  
                         u2970 0D42                           u1995 0372                           u2971 0D41  
                         u2795 0A8D                           u2981 0D51                           u2894 0FF1  
                         u2990 0D6A                           u2982 0D52                           u2991 0D69  
                         u2983 0D57                           u2984 0D58                           u2985 0D5D  
                         u2986 0D5E    controlarSetPoint@S2Anterior 00BA                           _main 017F  
  controlarSetPoint@S3Anterior 00B8                           btemp 007E               __end_of_ADC_Init 0A75  
             __end_of_ADC_Read 0B16    controlarSetPoint@S4Anterior 00B6                           start 0000  
              ___fldiv@new_exp 0046       controlarSetPoint@S1Atual 00BB       controlarSetPoint@S2Atual 00B9  
     controlarSetPoint@S3Atual 00B7       controlarSetPoint@S4Atual 00B5                  ___fltol@sign1 006C  
              __end_of___aldiv 0D04                          ?_main 0070                          _CCP1X 00BD  
              __end_of___fldiv 0491                          _CCP1Y 00BC                          _CCP2X 00ED  
                        _CCP2Y 00EC                __end_of___flmul 07F2                __end_of___fltol 0C67  
              __end_of___lwdiv 0BCB                __end_of___lwmod 0B87                          _PORTD 0008  
                        _TRISA 0085                          _TRISB 0086                          _TRISC 0087  
                        _TRISD 0088                          _TRISE 0089             __size_of_PWM1_Duty 00CE  
                  ?_PWM1_Start 0070             __size_of_PWM2_Duty 00CE                    ?_PWM2_Start 0070  
                 main@setPoint 00B3                          pclath 000A               __end_of_PWM_Init 0B4D  
                        status 0003                          wtemp0 007E                __initialization 07F2  
                 __end_of_main 02B4                         ??_main 00A9                         _ADCON0 001F  
                       _ADCON1 009F                         _CCP1M2 00BA                         _CCP1M3 00BB  
                       _CCP2M2 00EA                         _CCP2M3 00EB                         _ADRESH 001E  
                       _ADRESL 009E                         _CCPR1L 0015                         _CCPR2L 001B  
                       _TMR2ON 0092                         _TRISC1 0439                         _TRISC2 043A  
             __end_of___xxtofl 0E64           _controleMaximoMinimo 0A7E                         ___flge 0D04  
            __end_of_PWM1_Duty 0F32              __end_of_PWM2_Duty 1000                      ??___aldiv 0078  
                       ___wmul 0A96                      ??___fldiv 003C            __size_of_PWM1_Start 0009  
                    ??___flmul 0056                      ??___fltol 00A0            __size_of_PWM2_Start 000B  
                       _digito 0806                      ??___lwdiv 007A                      ??___lwmod 0074  
              ADC_Read@channel 0074             __size_of__Umul8_16 0027                   PWM_Init@freq 0026  
                    ?_ADC_Init 0070                      ?_ADC_Read 0070                     ___flge@ff1 0034  
                   ___flge@ff2 0038                   ___xxtofl@arg 0030                   ___xxtofl@exp 002F  
                 ___xxtofl@val 0026        __end_of__initialization 07FC                     ___fltol@f1 0068  
        ?_controleMaximoMinimo 0070                 __pcstackCOMMON 0070                _atualizaDisplay 0081  
                    ?_PWM_Init 0026                     ??_ADC_Init 0070                     ??_ADC_Read 0072  
                   __pbssBANK1 00B5            _atualizaDisplay$755 002E            _atualizaDisplay$756 002C  
            __end_of__Umul8_16 0AE2                     __pmaintext 017F                        ?___flge 0034  
                      ?___wmul 0075                     ??_PWM_Init 0079                        _T2CKPS0 0090  
                      _T2CKPS1 0091                      ?___xxtofl 0026                   ??_PWM1_Start 0070  
                 ??_PWM2_Start 0070                     __stringtab 0800        __end_of_atualizaDisplay 017F  
       ??_controleMaximoMinimo 0072                        ___aldiv 0C67                __size_of___flge 00A4  
                      ___fldiv 02B4                        ___flmul 0491                        ___fltol 0BCB  
              __size_of___wmul 0025                        ___lwdiv 0B87                        ___lwmod 0B4D  
           __end_of_PWM1_Start 0A7E             __end_of_PWM2_Start 0010                        __ptext1 0A7E  
                      __ptext2 0010                        __ptext3 0081                        __ptext4 0B4D  
                      __ptext5 0B87                        __ptext6 0A96                        __ptext7 0D04  
                      __ptext8 0005                        __ptext9 0F32                     ??___xxtofl 002A  
             ___aldiv@dividend 0074           end_of_initialization 07FC               ___aldiv@quotient 0022  
                    _PWM1_Duty 0E64                      _PWM2_Duty 0F32                  ___xxtofl@sign 002E  
    controleMaximoMinimo@valor 0070                    ___fldiv@grs 0048                    ___fldiv@rem 0041  
            __size_of_ADC_Init 0009              __size_of_ADC_Read 0034              main@valorSetPoint 00AD  
                  ___flmul@grs 005C                     main@cooler 00B1               ?_atualizaDisplay 0020  
               __end_of___flge 0DA8                 __end_of___wmul 0ABB                 __end_of_digito 0810  
                   ?_PWM1_Duty 00A5                     ?_PWM2_Duty 00A5              __size_of_PWM_Init 0037  
          start_initialization 07F2                       ??___flge 003C                       ??___wmul 0079  
                    __Umul8_16 0ABB                      ___fldiv@a 0034                      ___fldiv@b 0038  
                    ___flmul@a 0052                      ___flmul@b 004E                      ___latbits 0002  
                __pcstackBANK0 0020                  __pcstackBANK1 00A0              __size_of___xxtofl 00BC  
                    __pnvBANK1 00BD               ___lwdiv@dividend 0078                       ?___aldiv 0070  
                     ?___fldiv 0034                       ?___flmul 004E                       ?___fltol 0068  
                   ?__Umul8_16 0070                       ?___lwdiv 0076                       ?___lwmod 0070  
                  ??_PWM1_Duty 006E                    ??_PWM2_Duty 006E                      __pstrings 0800  
       atualizaDisplay@centena 0026                       _ADC_Init 0A6C                       _ADC_Read 0AE2  
             ___lwdiv@quotient 007B         atualizaDisplay@tempSet 0020         atualizaDisplay@unidade 002A  
              ___aldiv@divisor 0070                ___aldiv@counter 0020                 ___wmul@product 0079  
            _controlarSetPoint 0010             ?_controlarSetPoint 0070  __size_of_controleMaximoMinimo 0018  
                PWM1_Duty@freq 00A7                  PWM1_Duty@duty 00A5                       _GO_nDONE 00FA  
          ??_controlarSetPoint 0072                  PWM2_Duty@freq 00A7                  PWM2_Duty@duty 00A5  
                  __stringbase 0805                       _PWM_Init 0B16              ___wmul@multiplier 0075  
    __end_of_controlarSetPoint 0081                    ??__Umul8_16 0072               __size_of___aldiv 009D  
             __size_of___fldiv 01DD               __size_of___flmul 0361               __size_of___fltol 009C  
             __size_of___lwdiv 0044               __size_of___lwmod 003A             __end_of__stringtab 0806  
                     ___xxtofl 0DA8                ___lwdiv@divisor 0076                ___lwdiv@counter 007D  
                     __ptext10 0A75                       __ptext11 0E64                       __ptext20 0A6C  
                     __ptext12 0DA8                       __ptext13 0BCB                       __ptext14 0491  
                     __ptext15 0ABB                       __ptext16 02B4                       __ptext17 0B16  
                     __ptext18 0C67                       __ptext19 0AE2          atualizaDisplay@dezena 0028  
        atualizaDisplay@milhar 0024                  __size_of_main 0135      controlarSetPoint@setPoint 0070  
     __size_of_atualizaDisplay 00FE                main@temperatura 00BD     __size_of_controlarSetPoint 0071  
             ___lwmod@dividend 0072                      stringcode 0800         __Umul8_16@multiplicand 0070  
              ___lwmod@divisor 0070                ___lwmod@counter 0075                       stringdir 0800  
                     stringtab 0800                   ___aldiv@sign 0021                     _PWM1_Start 0A75  
                   _PWM2_Start 0005           __Umul8_16@multiplier 0078              __Umul8_16@product 0074  
